
rtarget:     file format elf64-x86-64


Disassembly of section .init:

0000000000400c08 <_init>:
  400c08:	48 83 ec 08          	sub    $0x8,%rsp
  400c0c:	48 8b 05 e5 43 20 00 	mov    0x2043e5(%rip),%rax        # 604ff8 <__gmon_start__>
  400c13:	48 85 c0             	test   %rax,%rax
  400c16:	74 05                	je     400c1d <_init+0x15>
  400c18:	e8 33 02 00 00       	callq  400e50 <__gmon_start__@plt>
  400c1d:	48 83 c4 08          	add    $0x8,%rsp
  400c21:	c3                   	retq   

Disassembly of section .plt:

0000000000400c30 <.plt>:
  400c30:	ff 35 d2 43 20 00    	pushq  0x2043d2(%rip)        # 605008 <_GLOBAL_OFFSET_TABLE_+0x8>
  400c36:	ff 25 d4 43 20 00    	jmpq   *0x2043d4(%rip)        # 605010 <_GLOBAL_OFFSET_TABLE_+0x10>
  400c3c:	0f 1f 40 00          	nopl   0x0(%rax)

0000000000400c40 <__errno_location@plt>:
  400c40:	ff 25 d2 43 20 00    	jmpq   *0x2043d2(%rip)        # 605018 <__errno_location@GLIBC_2.2.5>
  400c46:	68 00 00 00 00       	pushq  $0x0
  400c4b:	e9 e0 ff ff ff       	jmpq   400c30 <.plt>

0000000000400c50 <srandom@plt>:
  400c50:	ff 25 ca 43 20 00    	jmpq   *0x2043ca(%rip)        # 605020 <srandom@GLIBC_2.2.5>
  400c56:	68 01 00 00 00       	pushq  $0x1
  400c5b:	e9 d0 ff ff ff       	jmpq   400c30 <.plt>

0000000000400c60 <strncmp@plt>:
  400c60:	ff 25 c2 43 20 00    	jmpq   *0x2043c2(%rip)        # 605028 <strncmp@GLIBC_2.2.5>
  400c66:	68 02 00 00 00       	pushq  $0x2
  400c6b:	e9 c0 ff ff ff       	jmpq   400c30 <.plt>

0000000000400c70 <strcpy@plt>:
  400c70:	ff 25 ba 43 20 00    	jmpq   *0x2043ba(%rip)        # 605030 <strcpy@GLIBC_2.2.5>
  400c76:	68 03 00 00 00       	pushq  $0x3
  400c7b:	e9 b0 ff ff ff       	jmpq   400c30 <.plt>

0000000000400c80 <puts@plt>:
  400c80:	ff 25 b2 43 20 00    	jmpq   *0x2043b2(%rip)        # 605038 <puts@GLIBC_2.2.5>
  400c86:	68 04 00 00 00       	pushq  $0x4
  400c8b:	e9 a0 ff ff ff       	jmpq   400c30 <.plt>

0000000000400c90 <write@plt>:
  400c90:	ff 25 aa 43 20 00    	jmpq   *0x2043aa(%rip)        # 605040 <write@GLIBC_2.2.5>
  400c96:	68 05 00 00 00       	pushq  $0x5
  400c9b:	e9 90 ff ff ff       	jmpq   400c30 <.plt>

0000000000400ca0 <__stack_chk_fail@plt>:
  400ca0:	ff 25 a2 43 20 00    	jmpq   *0x2043a2(%rip)        # 605048 <__stack_chk_fail@GLIBC_2.4>
  400ca6:	68 06 00 00 00       	pushq  $0x6
  400cab:	e9 80 ff ff ff       	jmpq   400c30 <.plt>

0000000000400cb0 <mmap@plt>:
  400cb0:	ff 25 9a 43 20 00    	jmpq   *0x20439a(%rip)        # 605050 <mmap@GLIBC_2.2.5>
  400cb6:	68 07 00 00 00       	pushq  $0x7
  400cbb:	e9 70 ff ff ff       	jmpq   400c30 <.plt>

0000000000400cc0 <memset@plt>:
  400cc0:	ff 25 92 43 20 00    	jmpq   *0x204392(%rip)        # 605058 <memset@GLIBC_2.2.5>
  400cc6:	68 08 00 00 00       	pushq  $0x8
  400ccb:	e9 60 ff ff ff       	jmpq   400c30 <.plt>

0000000000400cd0 <alarm@plt>:
  400cd0:	ff 25 8a 43 20 00    	jmpq   *0x20438a(%rip)        # 605060 <alarm@GLIBC_2.2.5>
  400cd6:	68 09 00 00 00       	pushq  $0x9
  400cdb:	e9 50 ff ff ff       	jmpq   400c30 <.plt>

0000000000400ce0 <close@plt>:
  400ce0:	ff 25 82 43 20 00    	jmpq   *0x204382(%rip)        # 605068 <close@GLIBC_2.2.5>
  400ce6:	68 0a 00 00 00       	pushq  $0xa
  400ceb:	e9 40 ff ff ff       	jmpq   400c30 <.plt>

0000000000400cf0 <read@plt>:
  400cf0:	ff 25 7a 43 20 00    	jmpq   *0x20437a(%rip)        # 605070 <read@GLIBC_2.2.5>
  400cf6:	68 0b 00 00 00       	pushq  $0xb
  400cfb:	e9 30 ff ff ff       	jmpq   400c30 <.plt>

0000000000400d00 <__libc_start_main@plt>:
  400d00:	ff 25 72 43 20 00    	jmpq   *0x204372(%rip)        # 605078 <__libc_start_main@GLIBC_2.2.5>
  400d06:	68 0c 00 00 00       	pushq  $0xc
  400d0b:	e9 20 ff ff ff       	jmpq   400c30 <.plt>

0000000000400d10 <signal@plt>:
  400d10:	ff 25 6a 43 20 00    	jmpq   *0x20436a(%rip)        # 605080 <signal@GLIBC_2.2.5>
  400d16:	68 0d 00 00 00       	pushq  $0xd
  400d1b:	e9 10 ff ff ff       	jmpq   400c30 <.plt>

0000000000400d20 <gethostbyname@plt>:
  400d20:	ff 25 62 43 20 00    	jmpq   *0x204362(%rip)        # 605088 <gethostbyname@GLIBC_2.2.5>
  400d26:	68 0e 00 00 00       	pushq  $0xe
  400d2b:	e9 00 ff ff ff       	jmpq   400c30 <.plt>

0000000000400d30 <__memmove_chk@plt>:
  400d30:	ff 25 5a 43 20 00    	jmpq   *0x20435a(%rip)        # 605090 <__memmove_chk@GLIBC_2.3.4>
  400d36:	68 0f 00 00 00       	pushq  $0xf
  400d3b:	e9 f0 fe ff ff       	jmpq   400c30 <.plt>

0000000000400d40 <strtol@plt>:
  400d40:	ff 25 52 43 20 00    	jmpq   *0x204352(%rip)        # 605098 <strtol@GLIBC_2.2.5>
  400d46:	68 10 00 00 00       	pushq  $0x10
  400d4b:	e9 e0 fe ff ff       	jmpq   400c30 <.plt>

0000000000400d50 <memcpy@plt>:
  400d50:	ff 25 4a 43 20 00    	jmpq   *0x20434a(%rip)        # 6050a0 <memcpy@GLIBC_2.14>
  400d56:	68 11 00 00 00       	pushq  $0x11
  400d5b:	e9 d0 fe ff ff       	jmpq   400c30 <.plt>

0000000000400d60 <time@plt>:
  400d60:	ff 25 42 43 20 00    	jmpq   *0x204342(%rip)        # 6050a8 <time@GLIBC_2.2.5>
  400d66:	68 12 00 00 00       	pushq  $0x12
  400d6b:	e9 c0 fe ff ff       	jmpq   400c30 <.plt>

0000000000400d70 <random@plt>:
  400d70:	ff 25 3a 43 20 00    	jmpq   *0x20433a(%rip)        # 6050b0 <random@GLIBC_2.2.5>
  400d76:	68 13 00 00 00       	pushq  $0x13
  400d7b:	e9 b0 fe ff ff       	jmpq   400c30 <.plt>

0000000000400d80 <_IO_getc@plt>:
  400d80:	ff 25 32 43 20 00    	jmpq   *0x204332(%rip)        # 6050b8 <_IO_getc@GLIBC_2.2.5>
  400d86:	68 14 00 00 00       	pushq  $0x14
  400d8b:	e9 a0 fe ff ff       	jmpq   400c30 <.plt>

0000000000400d90 <__isoc99_sscanf@plt>:
  400d90:	ff 25 2a 43 20 00    	jmpq   *0x20432a(%rip)        # 6050c0 <__isoc99_sscanf@GLIBC_2.7>
  400d96:	68 15 00 00 00       	pushq  $0x15
  400d9b:	e9 90 fe ff ff       	jmpq   400c30 <.plt>

0000000000400da0 <munmap@plt>:
  400da0:	ff 25 22 43 20 00    	jmpq   *0x204322(%rip)        # 6050c8 <munmap@GLIBC_2.2.5>
  400da6:	68 16 00 00 00       	pushq  $0x16
  400dab:	e9 80 fe ff ff       	jmpq   400c30 <.plt>

0000000000400db0 <__printf_chk@plt>:
  400db0:	ff 25 1a 43 20 00    	jmpq   *0x20431a(%rip)        # 6050d0 <__printf_chk@GLIBC_2.3.4>
  400db6:	68 17 00 00 00       	pushq  $0x17
  400dbb:	e9 70 fe ff ff       	jmpq   400c30 <.plt>

0000000000400dc0 <fopen@plt>:
  400dc0:	ff 25 12 43 20 00    	jmpq   *0x204312(%rip)        # 6050d8 <fopen@GLIBC_2.2.5>
  400dc6:	68 18 00 00 00       	pushq  $0x18
  400dcb:	e9 60 fe ff ff       	jmpq   400c30 <.plt>

0000000000400dd0 <getopt@plt>:
  400dd0:	ff 25 0a 43 20 00    	jmpq   *0x20430a(%rip)        # 6050e0 <getopt@GLIBC_2.2.5>
  400dd6:	68 19 00 00 00       	pushq  $0x19
  400ddb:	e9 50 fe ff ff       	jmpq   400c30 <.plt>

0000000000400de0 <strtoul@plt>:
  400de0:	ff 25 02 43 20 00    	jmpq   *0x204302(%rip)        # 6050e8 <strtoul@GLIBC_2.2.5>
  400de6:	68 1a 00 00 00       	pushq  $0x1a
  400deb:	e9 40 fe ff ff       	jmpq   400c30 <.plt>

0000000000400df0 <gethostname@plt>:
  400df0:	ff 25 fa 42 20 00    	jmpq   *0x2042fa(%rip)        # 6050f0 <gethostname@GLIBC_2.2.5>
  400df6:	68 1b 00 00 00       	pushq  $0x1b
  400dfb:	e9 30 fe ff ff       	jmpq   400c30 <.plt>

0000000000400e00 <exit@plt>:
  400e00:	ff 25 f2 42 20 00    	jmpq   *0x2042f2(%rip)        # 6050f8 <exit@GLIBC_2.2.5>
  400e06:	68 1c 00 00 00       	pushq  $0x1c
  400e0b:	e9 20 fe ff ff       	jmpq   400c30 <.plt>

0000000000400e10 <connect@plt>:
  400e10:	ff 25 ea 42 20 00    	jmpq   *0x2042ea(%rip)        # 605100 <connect@GLIBC_2.2.5>
  400e16:	68 1d 00 00 00       	pushq  $0x1d
  400e1b:	e9 10 fe ff ff       	jmpq   400c30 <.plt>

0000000000400e20 <__fprintf_chk@plt>:
  400e20:	ff 25 e2 42 20 00    	jmpq   *0x2042e2(%rip)        # 605108 <__fprintf_chk@GLIBC_2.3.4>
  400e26:	68 1e 00 00 00       	pushq  $0x1e
  400e2b:	e9 00 fe ff ff       	jmpq   400c30 <.plt>

0000000000400e30 <__sprintf_chk@plt>:
  400e30:	ff 25 da 42 20 00    	jmpq   *0x2042da(%rip)        # 605110 <__sprintf_chk@GLIBC_2.3.4>
  400e36:	68 1f 00 00 00       	pushq  $0x1f
  400e3b:	e9 f0 fd ff ff       	jmpq   400c30 <.plt>

0000000000400e40 <socket@plt>:
  400e40:	ff 25 d2 42 20 00    	jmpq   *0x2042d2(%rip)        # 605118 <socket@GLIBC_2.2.5>
  400e46:	68 20 00 00 00       	pushq  $0x20
  400e4b:	e9 e0 fd ff ff       	jmpq   400c30 <.plt>

Disassembly of section .plt.got:

0000000000400e50 <__gmon_start__@plt>:
  400e50:	ff 25 a2 41 20 00    	jmpq   *0x2041a2(%rip)        # 604ff8 <__gmon_start__>
  400e56:	66 90                	xchg   %ax,%ax

Disassembly of section .text:

0000000000400e60 <_start>:
  400e60:	31 ed                	xor    %ebp,%ebp
  400e62:	49 89 d1             	mov    %rdx,%r9
  400e65:	5e                   	pop    %rsi
  400e66:	48 89 e2             	mov    %rsp,%rdx
  400e69:	48 83 e4 f0          	and    $0xfffffffffffffff0,%rsp
  400e6d:	50                   	push   %rax
  400e6e:	54                   	push   %rsp
  400e6f:	49 c7 c0 b0 2e 40 00 	mov    $0x402eb0,%r8
  400e76:	48 c7 c1 40 2e 40 00 	mov    $0x402e40,%rcx
  400e7d:	48 c7 c7 0b 11 40 00 	mov    $0x40110b,%rdi
  400e84:	e8 77 fe ff ff       	callq  400d00 <__libc_start_main@plt>
  400e89:	f4                   	hlt    
  400e8a:	66 0f 1f 44 00 00    	nopw   0x0(%rax,%rax,1)

0000000000400e90 <deregister_tm_clones>:
  400e90:	b8 97 54 60 00       	mov    $0x605497,%eax
  400e95:	55                   	push   %rbp
  400e96:	48 2d 90 54 60 00    	sub    $0x605490,%rax
  400e9c:	48 83 f8 0e          	cmp    $0xe,%rax
  400ea0:	48 89 e5             	mov    %rsp,%rbp
  400ea3:	76 1b                	jbe    400ec0 <deregister_tm_clones+0x30>
  400ea5:	b8 00 00 00 00       	mov    $0x0,%eax
  400eaa:	48 85 c0             	test   %rax,%rax
  400ead:	74 11                	je     400ec0 <deregister_tm_clones+0x30>
  400eaf:	5d                   	pop    %rbp
  400eb0:	bf 90 54 60 00       	mov    $0x605490,%edi
  400eb5:	ff e0                	jmpq   *%rax
  400eb7:	66 0f 1f 84 00 00 00 	nopw   0x0(%rax,%rax,1)
  400ebe:	00 00 
  400ec0:	5d                   	pop    %rbp
  400ec1:	c3                   	retq   
  400ec2:	0f 1f 40 00          	nopl   0x0(%rax)
  400ec6:	66 2e 0f 1f 84 00 00 	nopw   %cs:0x0(%rax,%rax,1)
  400ecd:	00 00 00 

0000000000400ed0 <register_tm_clones>:
  400ed0:	be 90 54 60 00       	mov    $0x605490,%esi
  400ed5:	55                   	push   %rbp
  400ed6:	48 81 ee 90 54 60 00 	sub    $0x605490,%rsi
  400edd:	48 c1 fe 03          	sar    $0x3,%rsi
  400ee1:	48 89 e5             	mov    %rsp,%rbp
  400ee4:	48 89 f0             	mov    %rsi,%rax
  400ee7:	48 c1 e8 3f          	shr    $0x3f,%rax
  400eeb:	48 01 c6             	add    %rax,%rsi
  400eee:	48 d1 fe             	sar    %rsi
  400ef1:	74 15                	je     400f08 <register_tm_clones+0x38>
  400ef3:	b8 00 00 00 00       	mov    $0x0,%eax
  400ef8:	48 85 c0             	test   %rax,%rax
  400efb:	74 0b                	je     400f08 <register_tm_clones+0x38>
  400efd:	5d                   	pop    %rbp
  400efe:	bf 90 54 60 00       	mov    $0x605490,%edi
  400f03:	ff e0                	jmpq   *%rax
  400f05:	0f 1f 00             	nopl   (%rax)
  400f08:	5d                   	pop    %rbp
  400f09:	c3                   	retq   
  400f0a:	66 0f 1f 44 00 00    	nopw   0x0(%rax,%rax,1)

0000000000400f10 <__do_global_dtors_aux>:
  400f10:	80 3d b1 45 20 00 00 	cmpb   $0x0,0x2045b1(%rip)        # 6054c8 <completed.7594>
  400f17:	75 11                	jne    400f2a <__do_global_dtors_aux+0x1a>
  400f19:	55                   	push   %rbp
  400f1a:	48 89 e5             	mov    %rsp,%rbp
  400f1d:	e8 6e ff ff ff       	callq  400e90 <deregister_tm_clones>
  400f22:	5d                   	pop    %rbp
  400f23:	c6 05 9e 45 20 00 01 	movb   $0x1,0x20459e(%rip)        # 6054c8 <completed.7594>
  400f2a:	f3 c3                	repz retq 
  400f2c:	0f 1f 40 00          	nopl   0x0(%rax)

0000000000400f30 <frame_dummy>:
  400f30:	bf 20 4e 60 00       	mov    $0x604e20,%edi
  400f35:	48 83 3f 00          	cmpq   $0x0,(%rdi)
  400f39:	75 05                	jne    400f40 <frame_dummy+0x10>
  400f3b:	eb 93                	jmp    400ed0 <register_tm_clones>
  400f3d:	0f 1f 00             	nopl   (%rax)
  400f40:	b8 00 00 00 00       	mov    $0x0,%eax
  400f45:	48 85 c0             	test   %rax,%rax
  400f48:	74 f1                	je     400f3b <frame_dummy+0xb>
  400f4a:	55                   	push   %rbp
  400f4b:	48 89 e5             	mov    %rsp,%rbp
  400f4e:	ff d0                	callq  *%rax
  400f50:	5d                   	pop    %rbp
  400f51:	e9 7a ff ff ff       	jmpq   400ed0 <register_tm_clones>

0000000000400f56 <usage>:
  400f56:	48 83 ec 08          	sub    $0x8,%rsp
  400f5a:	48 89 fa             	mov    %rdi,%rdx
  400f5d:	83 3d a4 45 20 00 00 	cmpl   $0x0,0x2045a4(%rip)        # 605508 <is_checker>
  400f64:	74 3e                	je     400fa4 <usage+0x4e>
  400f66:	be c8 2e 40 00       	mov    $0x402ec8,%esi
  400f6b:	bf 01 00 00 00       	mov    $0x1,%edi
  400f70:	b8 00 00 00 00       	mov    $0x0,%eax
  400f75:	e8 36 fe ff ff       	callq  400db0 <__printf_chk@plt>
  400f7a:	bf 00 2f 40 00       	mov    $0x402f00,%edi
  400f7f:	e8 fc fc ff ff       	callq  400c80 <puts@plt>
  400f84:	bf 38 30 40 00       	mov    $0x403038,%edi
  400f89:	e8 f2 fc ff ff       	callq  400c80 <puts@plt>
  400f8e:	bf 28 2f 40 00       	mov    $0x402f28,%edi
  400f93:	e8 e8 fc ff ff       	callq  400c80 <puts@plt>
  400f98:	bf 52 30 40 00       	mov    $0x403052,%edi
  400f9d:	e8 de fc ff ff       	callq  400c80 <puts@plt>
  400fa2:	eb 32                	jmp    400fd6 <usage+0x80>
  400fa4:	be 6e 30 40 00       	mov    $0x40306e,%esi
  400fa9:	bf 01 00 00 00       	mov    $0x1,%edi
  400fae:	b8 00 00 00 00       	mov    $0x0,%eax
  400fb3:	e8 f8 fd ff ff       	callq  400db0 <__printf_chk@plt>
  400fb8:	bf 50 2f 40 00       	mov    $0x402f50,%edi
  400fbd:	e8 be fc ff ff       	callq  400c80 <puts@plt>
  400fc2:	bf 78 2f 40 00       	mov    $0x402f78,%edi
  400fc7:	e8 b4 fc ff ff       	callq  400c80 <puts@plt>
  400fcc:	bf 8c 30 40 00       	mov    $0x40308c,%edi
  400fd1:	e8 aa fc ff ff       	callq  400c80 <puts@plt>
  400fd6:	bf 00 00 00 00       	mov    $0x0,%edi
  400fdb:	e8 20 fe ff ff       	callq  400e00 <exit@plt>

0000000000400fe0 <initialize_target>:
  400fe0:	55                   	push   %rbp
  400fe1:	53                   	push   %rbx
  400fe2:	48 81 ec 18 21 00 00 	sub    $0x2118,%rsp
  400fe9:	89 f5                	mov    %esi,%ebp
  400feb:	64 48 8b 04 25 28 00 	mov    %fs:0x28,%rax
  400ff2:	00 00 
  400ff4:	48 89 84 24 08 21 00 	mov    %rax,0x2108(%rsp)
  400ffb:	00 
  400ffc:	31 c0                	xor    %eax,%eax
  400ffe:	89 3d f4 44 20 00    	mov    %edi,0x2044f4(%rip)        # 6054f8 <check_level>
  401004:	8b 3d 3e 41 20 00    	mov    0x20413e(%rip),%edi        # 605148 <target_id>
  40100a:	e8 0d 1e 00 00       	callq  402e1c <gencookie>
  40100f:	89 05 ef 44 20 00    	mov    %eax,0x2044ef(%rip)        # 605504 <cookie>
  401015:	89 c7                	mov    %eax,%edi
  401017:	e8 00 1e 00 00       	callq  402e1c <gencookie>
  40101c:	89 05 de 44 20 00    	mov    %eax,0x2044de(%rip)        # 605500 <authkey>
  401022:	8b 05 20 41 20 00    	mov    0x204120(%rip),%eax        # 605148 <target_id>
  401028:	8d 78 01             	lea    0x1(%rax),%edi
  40102b:	e8 20 fc ff ff       	callq  400c50 <srandom@plt>
  401030:	e8 3b fd ff ff       	callq  400d70 <random@plt>
  401035:	89 c7                	mov    %eax,%edi
  401037:	e8 a9 02 00 00       	callq  4012e5 <scramble>
  40103c:	89 c3                	mov    %eax,%ebx
  40103e:	85 ed                	test   %ebp,%ebp
  401040:	74 18                	je     40105a <initialize_target+0x7a>
  401042:	bf 00 00 00 00       	mov    $0x0,%edi
  401047:	e8 14 fd ff ff       	callq  400d60 <time@plt>
  40104c:	89 c7                	mov    %eax,%edi
  40104e:	e8 fd fb ff ff       	callq  400c50 <srandom@plt>
  401053:	e8 18 fd ff ff       	callq  400d70 <random@plt>
  401058:	eb 05                	jmp    40105f <initialize_target+0x7f>
  40105a:	b8 00 00 00 00       	mov    $0x0,%eax
  40105f:	01 c3                	add    %eax,%ebx
  401061:	0f b7 db             	movzwl %bx,%ebx
  401064:	8d 04 dd 00 01 00 00 	lea    0x100(,%rbx,8),%eax
  40106b:	89 c0                	mov    %eax,%eax
  40106d:	48 89 05 0c 44 20 00 	mov    %rax,0x20440c(%rip)        # 605480 <buf_offset>
  401074:	c6 05 ad 50 20 00 72 	movb   $0x72,0x2050ad(%rip)        # 606128 <target_prefix>
  40107b:	83 3d 06 44 20 00 00 	cmpl   $0x0,0x204406(%rip)        # 605488 <notify>
  401082:	74 65                	je     4010e9 <initialize_target+0x109>
  401084:	83 3d 7d 44 20 00 00 	cmpl   $0x0,0x20447d(%rip)        # 605508 <is_checker>
  40108b:	75 5c                	jne    4010e9 <initialize_target+0x109>
  40108d:	be 00 01 00 00       	mov    $0x100,%esi
  401092:	48 89 e7             	mov    %rsp,%rdi
  401095:	e8 56 fd ff ff       	callq  400df0 <gethostname@plt>
  40109a:	85 c0                	test   %eax,%eax
  40109c:	74 14                	je     4010b2 <initialize_target+0xd2>
  40109e:	bf a8 2f 40 00       	mov    $0x402fa8,%edi
  4010a3:	e8 d8 fb ff ff       	callq  400c80 <puts@plt>
  4010a8:	bf 08 00 00 00       	mov    $0x8,%edi
  4010ad:	e8 4e fd ff ff       	callq  400e00 <exit@plt>
  4010b2:	48 8d bc 24 00 01 00 	lea    0x100(%rsp),%rdi
  4010b9:	00 
  4010ba:	e8 c7 1a 00 00       	callq  402b86 <init_driver>
  4010bf:	85 c0                	test   %eax,%eax
  4010c1:	79 26                	jns    4010e9 <initialize_target+0x109>
  4010c3:	48 8d 94 24 00 01 00 	lea    0x100(%rsp),%rdx
  4010ca:	00 
  4010cb:	be e0 2f 40 00       	mov    $0x402fe0,%esi
  4010d0:	bf 01 00 00 00       	mov    $0x1,%edi
  4010d5:	b8 00 00 00 00       	mov    $0x0,%eax
  4010da:	e8 d1 fc ff ff       	callq  400db0 <__printf_chk@plt>
  4010df:	bf 08 00 00 00       	mov    $0x8,%edi
  4010e4:	e8 17 fd ff ff       	callq  400e00 <exit@plt>
  4010e9:	48 8b 84 24 08 21 00 	mov    0x2108(%rsp),%rax
  4010f0:	00 
  4010f1:	64 48 33 04 25 28 00 	xor    %fs:0x28,%rax
  4010f8:	00 00 
  4010fa:	74 05                	je     401101 <initialize_target+0x121>
  4010fc:	e8 9f fb ff ff       	callq  400ca0 <__stack_chk_fail@plt>
  401101:	48 81 c4 18 21 00 00 	add    $0x2118,%rsp
  401108:	5b                   	pop    %rbx
  401109:	5d                   	pop    %rbp
  40110a:	c3                   	retq   

000000000040110b <main>:
  40110b:	41 56                	push   %r14
  40110d:	41 55                	push   %r13
  40110f:	41 54                	push   %r12
  401111:	55                   	push   %rbp
  401112:	53                   	push   %rbx
  401113:	41 89 fc             	mov    %edi,%r12d
  401116:	48 89 f3             	mov    %rsi,%rbx
  401119:	be c1 1e 40 00       	mov    $0x401ec1,%esi
  40111e:	bf 0b 00 00 00       	mov    $0xb,%edi
  401123:	e8 e8 fb ff ff       	callq  400d10 <signal@plt>
  401128:	be 73 1e 40 00       	mov    $0x401e73,%esi
  40112d:	bf 07 00 00 00       	mov    $0x7,%edi
  401132:	e8 d9 fb ff ff       	callq  400d10 <signal@plt>
  401137:	be 0f 1f 40 00       	mov    $0x401f0f,%esi
  40113c:	bf 04 00 00 00       	mov    $0x4,%edi
  401141:	e8 ca fb ff ff       	callq  400d10 <signal@plt>
  401146:	83 3d bb 43 20 00 00 	cmpl   $0x0,0x2043bb(%rip)        # 605508 <is_checker>
  40114d:	74 20                	je     40116f <main+0x64>
  40114f:	be 5d 1f 40 00       	mov    $0x401f5d,%esi
  401154:	bf 0e 00 00 00       	mov    $0xe,%edi
  401159:	e8 b2 fb ff ff       	callq  400d10 <signal@plt>
  40115e:	bf 05 00 00 00       	mov    $0x5,%edi
  401163:	e8 68 fb ff ff       	callq  400cd0 <alarm@plt>
  401168:	bd aa 30 40 00       	mov    $0x4030aa,%ebp
  40116d:	eb 05                	jmp    401174 <main+0x69>
  40116f:	bd a5 30 40 00       	mov    $0x4030a5,%ebp
  401174:	48 8b 05 25 43 20 00 	mov    0x204325(%rip),%rax        # 6054a0 <stdin@@GLIBC_2.2.5>
  40117b:	48 89 05 6e 43 20 00 	mov    %rax,0x20436e(%rip)        # 6054f0 <infile>
  401182:	41 bd 00 00 00 00    	mov    $0x0,%r13d
  401188:	41 be 00 00 00 00    	mov    $0x0,%r14d
  40118e:	e9 c6 00 00 00       	jmpq   401259 <main+0x14e>
  401193:	83 e8 61             	sub    $0x61,%eax
  401196:	3c 10                	cmp    $0x10,%al
  401198:	0f 87 9c 00 00 00    	ja     40123a <main+0x12f>
  40119e:	0f b6 c0             	movzbl %al,%eax
  4011a1:	ff 24 c5 f0 30 40 00 	jmpq   *0x4030f0(,%rax,8)
  4011a8:	48 8b 3b             	mov    (%rbx),%rdi
  4011ab:	e8 a6 fd ff ff       	callq  400f56 <usage>
  4011b0:	be 75 33 40 00       	mov    $0x403375,%esi
  4011b5:	48 8b 3d ec 42 20 00 	mov    0x2042ec(%rip),%rdi        # 6054a8 <optarg@@GLIBC_2.2.5>
  4011bc:	e8 ff fb ff ff       	callq  400dc0 <fopen@plt>
  4011c1:	48 89 05 28 43 20 00 	mov    %rax,0x204328(%rip)        # 6054f0 <infile>
  4011c8:	48 85 c0             	test   %rax,%rax
  4011cb:	0f 85 88 00 00 00    	jne    401259 <main+0x14e>
  4011d1:	48 8b 0d d0 42 20 00 	mov    0x2042d0(%rip),%rcx        # 6054a8 <optarg@@GLIBC_2.2.5>
  4011d8:	ba b2 30 40 00       	mov    $0x4030b2,%edx
  4011dd:	be 01 00 00 00       	mov    $0x1,%esi
  4011e2:	48 8b 3d d7 42 20 00 	mov    0x2042d7(%rip),%rdi        # 6054c0 <stderr@@GLIBC_2.2.5>
  4011e9:	e8 32 fc ff ff       	callq  400e20 <__fprintf_chk@plt>
  4011ee:	b8 01 00 00 00       	mov    $0x1,%eax
  4011f3:	e9 e4 00 00 00       	jmpq   4012dc <main+0x1d1>
  4011f8:	ba 10 00 00 00       	mov    $0x10,%edx
  4011fd:	be 00 00 00 00       	mov    $0x0,%esi
  401202:	48 8b 3d 9f 42 20 00 	mov    0x20429f(%rip),%rdi        # 6054a8 <optarg@@GLIBC_2.2.5>
  401209:	e8 d2 fb ff ff       	callq  400de0 <strtoul@plt>
  40120e:	41 89 c6             	mov    %eax,%r14d
  401211:	eb 46                	jmp    401259 <main+0x14e>
  401213:	ba 0a 00 00 00       	mov    $0xa,%edx
  401218:	be 00 00 00 00       	mov    $0x0,%esi
  40121d:	48 8b 3d 84 42 20 00 	mov    0x204284(%rip),%rdi        # 6054a8 <optarg@@GLIBC_2.2.5>
  401224:	e8 17 fb ff ff       	callq  400d40 <strtol@plt>
  401229:	41 89 c5             	mov    %eax,%r13d
  40122c:	eb 2b                	jmp    401259 <main+0x14e>
  40122e:	c7 05 50 42 20 00 00 	movl   $0x0,0x204250(%rip)        # 605488 <notify>
  401235:	00 00 00 
  401238:	eb 1f                	jmp    401259 <main+0x14e>
  40123a:	0f be d2             	movsbl %dl,%edx
  40123d:	be cf 30 40 00       	mov    $0x4030cf,%esi
  401242:	bf 01 00 00 00       	mov    $0x1,%edi
  401247:	b8 00 00 00 00       	mov    $0x0,%eax
  40124c:	e8 5f fb ff ff       	callq  400db0 <__printf_chk@plt>
  401251:	48 8b 3b             	mov    (%rbx),%rdi
  401254:	e8 fd fc ff ff       	callq  400f56 <usage>
  401259:	48 89 ea             	mov    %rbp,%rdx
  40125c:	48 89 de             	mov    %rbx,%rsi
  40125f:	44 89 e7             	mov    %r12d,%edi
  401262:	e8 69 fb ff ff       	callq  400dd0 <getopt@plt>
  401267:	89 c2                	mov    %eax,%edx
  401269:	3c ff                	cmp    $0xff,%al
  40126b:	0f 85 22 ff ff ff    	jne    401193 <main+0x88>
  401271:	be 01 00 00 00       	mov    $0x1,%esi
  401276:	44 89 ef             	mov    %r13d,%edi
  401279:	e8 62 fd ff ff       	callq  400fe0 <initialize_target>
  40127e:	83 3d 83 42 20 00 00 	cmpl   $0x0,0x204283(%rip)        # 605508 <is_checker>
  401285:	74 2a                	je     4012b1 <main+0x1a6>
  401287:	44 3b 35 72 42 20 00 	cmp    0x204272(%rip),%r14d        # 605500 <authkey>
  40128e:	74 21                	je     4012b1 <main+0x1a6>
  401290:	44 89 f2             	mov    %r14d,%edx
  401293:	be 08 30 40 00       	mov    $0x403008,%esi
  401298:	bf 01 00 00 00       	mov    $0x1,%edi
  40129d:	b8 00 00 00 00       	mov    $0x0,%eax
  4012a2:	e8 09 fb ff ff       	callq  400db0 <__printf_chk@plt>
  4012a7:	b8 00 00 00 00       	mov    $0x0,%eax
  4012ac:	e8 5e 08 00 00       	callq  401b0f <check_fail>
  4012b1:	8b 15 4d 42 20 00    	mov    0x20424d(%rip),%edx        # 605504 <cookie>
  4012b7:	be e2 30 40 00       	mov    $0x4030e2,%esi
  4012bc:	bf 01 00 00 00       	mov    $0x1,%edi
  4012c1:	b8 00 00 00 00       	mov    $0x0,%eax
  4012c6:	e8 e5 fa ff ff       	callq  400db0 <__printf_chk@plt>
  4012cb:	48 8b 3d ae 41 20 00 	mov    0x2041ae(%rip),%rdi        # 605480 <buf_offset>
  4012d2:	e8 d9 0c 00 00       	callq  401fb0 <launch>
  4012d7:	b8 00 00 00 00       	mov    $0x0,%eax
  4012dc:	5b                   	pop    %rbx
  4012dd:	5d                   	pop    %rbp
  4012de:	41 5c                	pop    %r12
  4012e0:	41 5d                	pop    %r13
  4012e2:	41 5e                	pop    %r14
  4012e4:	c3                   	retq   

00000000004012e5 <scramble>:
  4012e5:	48 83 ec 38          	sub    $0x38,%rsp
  4012e9:	64 48 8b 04 25 28 00 	mov    %fs:0x28,%rax
  4012f0:	00 00 
  4012f2:	48 89 44 24 28       	mov    %rax,0x28(%rsp)
  4012f7:	31 c0                	xor    %eax,%eax
  4012f9:	eb 10                	jmp    40130b <scramble+0x26>
  4012fb:	69 d0 0b 01 00 00    	imul   $0x10b,%eax,%edx
  401301:	01 fa                	add    %edi,%edx
  401303:	89 c1                	mov    %eax,%ecx
  401305:	89 14 8c             	mov    %edx,(%rsp,%rcx,4)
  401308:	83 c0 01             	add    $0x1,%eax
  40130b:	83 f8 09             	cmp    $0x9,%eax
  40130e:	76 eb                	jbe    4012fb <scramble+0x16>
  401310:	8b 44 24 14          	mov    0x14(%rsp),%eax
  401314:	69 c0 3b ae 00 00    	imul   $0xae3b,%eax,%eax
  40131a:	89 44 24 14          	mov    %eax,0x14(%rsp)
  40131e:	8b 44 24 04          	mov    0x4(%rsp),%eax
  401322:	69 c0 ff 4f 00 00    	imul   $0x4fff,%eax,%eax
  401328:	89 44 24 04          	mov    %eax,0x4(%rsp)
  40132c:	8b 44 24 14          	mov    0x14(%rsp),%eax
  401330:	69 c0 3f 95 00 00    	imul   $0x953f,%eax,%eax
  401336:	89 44 24 14          	mov    %eax,0x14(%rsp)
  40133a:	8b 44 24 24          	mov    0x24(%rsp),%eax
  40133e:	69 c0 b4 ed 00 00    	imul   $0xedb4,%eax,%eax
  401344:	89 44 24 24          	mov    %eax,0x24(%rsp)
  401348:	8b 04 24             	mov    (%rsp),%eax
  40134b:	69 c0 ba 2b 00 00    	imul   $0x2bba,%eax,%eax
  401351:	89 04 24             	mov    %eax,(%rsp)
  401354:	8b 44 24 0c          	mov    0xc(%rsp),%eax
  401358:	69 c0 4c 3d 00 00    	imul   $0x3d4c,%eax,%eax
  40135e:	89 44 24 0c          	mov    %eax,0xc(%rsp)
  401362:	8b 44 24 20          	mov    0x20(%rsp),%eax
  401366:	69 c0 e8 bf 00 00    	imul   $0xbfe8,%eax,%eax
  40136c:	89 44 24 20          	mov    %eax,0x20(%rsp)
  401370:	8b 04 24             	mov    (%rsp),%eax
  401373:	69 c0 f2 7b 00 00    	imul   $0x7bf2,%eax,%eax
  401379:	89 04 24             	mov    %eax,(%rsp)
  40137c:	8b 04 24             	mov    (%rsp),%eax
  40137f:	69 c0 18 5c 00 00    	imul   $0x5c18,%eax,%eax
  401385:	89 04 24             	mov    %eax,(%rsp)
  401388:	8b 44 24 20          	mov    0x20(%rsp),%eax
  40138c:	69 c0 50 28 00 00    	imul   $0x2850,%eax,%eax
  401392:	89 44 24 20          	mov    %eax,0x20(%rsp)
  401396:	8b 04 24             	mov    (%rsp),%eax
  401399:	69 c0 14 28 00 00    	imul   $0x2814,%eax,%eax
  40139f:	89 04 24             	mov    %eax,(%rsp)
  4013a2:	8b 44 24 24          	mov    0x24(%rsp),%eax
  4013a6:	69 c0 d6 9e 00 00    	imul   $0x9ed6,%eax,%eax
  4013ac:	89 44 24 24          	mov    %eax,0x24(%rsp)
  4013b0:	8b 44 24 14          	mov    0x14(%rsp),%eax
  4013b4:	69 c0 6c e3 00 00    	imul   $0xe36c,%eax,%eax
  4013ba:	89 44 24 14          	mov    %eax,0x14(%rsp)
  4013be:	8b 44 24 0c          	mov    0xc(%rsp),%eax
  4013c2:	69 c0 f3 a0 00 00    	imul   $0xa0f3,%eax,%eax
  4013c8:	89 44 24 0c          	mov    %eax,0xc(%rsp)
  4013cc:	8b 44 24 18          	mov    0x18(%rsp),%eax
  4013d0:	69 c0 da f8 00 00    	imul   $0xf8da,%eax,%eax
  4013d6:	89 44 24 18          	mov    %eax,0x18(%rsp)
  4013da:	8b 04 24             	mov    (%rsp),%eax
  4013dd:	69 c0 7e 34 00 00    	imul   $0x347e,%eax,%eax
  4013e3:	89 04 24             	mov    %eax,(%rsp)
  4013e6:	8b 44 24 0c          	mov    0xc(%rsp),%eax
  4013ea:	69 c0 01 ef 00 00    	imul   $0xef01,%eax,%eax
  4013f0:	89 44 24 0c          	mov    %eax,0xc(%rsp)
  4013f4:	8b 44 24 10          	mov    0x10(%rsp),%eax
  4013f8:	69 c0 81 de 00 00    	imul   $0xde81,%eax,%eax
  4013fe:	89 44 24 10          	mov    %eax,0x10(%rsp)
  401402:	8b 44 24 04          	mov    0x4(%rsp),%eax
  401406:	69 c0 96 85 00 00    	imul   $0x8596,%eax,%eax
  40140c:	89 44 24 04          	mov    %eax,0x4(%rsp)
  401410:	8b 44 24 04          	mov    0x4(%rsp),%eax
  401414:	69 c0 43 78 00 00    	imul   $0x7843,%eax,%eax
  40141a:	89 44 24 04          	mov    %eax,0x4(%rsp)
  40141e:	8b 44 24 10          	mov    0x10(%rsp),%eax
  401422:	69 c0 da 92 00 00    	imul   $0x92da,%eax,%eax
  401428:	89 44 24 10          	mov    %eax,0x10(%rsp)
  40142c:	8b 44 24 10          	mov    0x10(%rsp),%eax
  401430:	69 c0 0c aa 00 00    	imul   $0xaa0c,%eax,%eax
  401436:	89 44 24 10          	mov    %eax,0x10(%rsp)
  40143a:	8b 04 24             	mov    (%rsp),%eax
  40143d:	69 c0 aa 69 00 00    	imul   $0x69aa,%eax,%eax
  401443:	89 04 24             	mov    %eax,(%rsp)
  401446:	8b 44 24 10          	mov    0x10(%rsp),%eax
  40144a:	69 c0 c6 a9 00 00    	imul   $0xa9c6,%eax,%eax
  401450:	89 44 24 10          	mov    %eax,0x10(%rsp)
  401454:	8b 04 24             	mov    (%rsp),%eax
  401457:	69 c0 0c a7 00 00    	imul   $0xa70c,%eax,%eax
  40145d:	89 04 24             	mov    %eax,(%rsp)
  401460:	8b 44 24 20          	mov    0x20(%rsp),%eax
  401464:	69 c0 42 cb 00 00    	imul   $0xcb42,%eax,%eax
  40146a:	89 44 24 20          	mov    %eax,0x20(%rsp)
  40146e:	8b 04 24             	mov    (%rsp),%eax
  401471:	69 c0 d4 4f 00 00    	imul   $0x4fd4,%eax,%eax
  401477:	89 04 24             	mov    %eax,(%rsp)
  40147a:	8b 44 24 1c          	mov    0x1c(%rsp),%eax
  40147e:	69 c0 b2 f9 00 00    	imul   $0xf9b2,%eax,%eax
  401484:	89 44 24 1c          	mov    %eax,0x1c(%rsp)
  401488:	8b 44 24 14          	mov    0x14(%rsp),%eax
  40148c:	69 c0 59 ee 00 00    	imul   $0xee59,%eax,%eax
  401492:	89 44 24 14          	mov    %eax,0x14(%rsp)
  401496:	8b 44 24 14          	mov    0x14(%rsp),%eax
  40149a:	69 c0 b4 66 00 00    	imul   $0x66b4,%eax,%eax
  4014a0:	89 44 24 14          	mov    %eax,0x14(%rsp)
  4014a4:	8b 44 24 24          	mov    0x24(%rsp),%eax
  4014a8:	69 c0 2b 74 00 00    	imul   $0x742b,%eax,%eax
  4014ae:	89 44 24 24          	mov    %eax,0x24(%rsp)
  4014b2:	8b 44 24 10          	mov    0x10(%rsp),%eax
  4014b6:	69 c0 49 8e 00 00    	imul   $0x8e49,%eax,%eax
  4014bc:	89 44 24 10          	mov    %eax,0x10(%rsp)
  4014c0:	8b 44 24 20          	mov    0x20(%rsp),%eax
  4014c4:	69 c0 b0 1f 00 00    	imul   $0x1fb0,%eax,%eax
  4014ca:	89 44 24 20          	mov    %eax,0x20(%rsp)
  4014ce:	8b 44 24 0c          	mov    0xc(%rsp),%eax
  4014d2:	69 c0 6c e7 00 00    	imul   $0xe76c,%eax,%eax
  4014d8:	89 44 24 0c          	mov    %eax,0xc(%rsp)
  4014dc:	8b 44 24 18          	mov    0x18(%rsp),%eax
  4014e0:	69 c0 00 39 00 00    	imul   $0x3900,%eax,%eax
  4014e6:	89 44 24 18          	mov    %eax,0x18(%rsp)
  4014ea:	8b 44 24 10          	mov    0x10(%rsp),%eax
  4014ee:	69 c0 98 56 00 00    	imul   $0x5698,%eax,%eax
  4014f4:	89 44 24 10          	mov    %eax,0x10(%rsp)
  4014f8:	8b 04 24             	mov    (%rsp),%eax
  4014fb:	69 c0 40 15 00 00    	imul   $0x1540,%eax,%eax
  401501:	89 04 24             	mov    %eax,(%rsp)
  401504:	8b 44 24 10          	mov    0x10(%rsp),%eax
  401508:	69 c0 9c 1e 00 00    	imul   $0x1e9c,%eax,%eax
  40150e:	89 44 24 10          	mov    %eax,0x10(%rsp)
  401512:	8b 44 24 18          	mov    0x18(%rsp),%eax
  401516:	69 c0 a2 26 00 00    	imul   $0x26a2,%eax,%eax
  40151c:	89 44 24 18          	mov    %eax,0x18(%rsp)
  401520:	8b 44 24 08          	mov    0x8(%rsp),%eax
  401524:	69 c0 ac 44 00 00    	imul   $0x44ac,%eax,%eax
  40152a:	89 44 24 08          	mov    %eax,0x8(%rsp)
  40152e:	8b 44 24 08          	mov    0x8(%rsp),%eax
  401532:	69 c0 78 9a 00 00    	imul   $0x9a78,%eax,%eax
  401538:	89 44 24 08          	mov    %eax,0x8(%rsp)
  40153c:	8b 04 24             	mov    (%rsp),%eax
  40153f:	69 c0 cf 9c 00 00    	imul   $0x9ccf,%eax,%eax
  401545:	89 04 24             	mov    %eax,(%rsp)
  401548:	8b 44 24 0c          	mov    0xc(%rsp),%eax
  40154c:	69 c0 06 7a 00 00    	imul   $0x7a06,%eax,%eax
  401552:	89 44 24 0c          	mov    %eax,0xc(%rsp)
  401556:	8b 44 24 0c          	mov    0xc(%rsp),%eax
  40155a:	69 c0 8d 1d 00 00    	imul   $0x1d8d,%eax,%eax
  401560:	89 44 24 0c          	mov    %eax,0xc(%rsp)
  401564:	8b 04 24             	mov    (%rsp),%eax
  401567:	69 c0 26 31 00 00    	imul   $0x3126,%eax,%eax
  40156d:	89 04 24             	mov    %eax,(%rsp)
  401570:	8b 44 24 08          	mov    0x8(%rsp),%eax
  401574:	69 c0 92 4f 00 00    	imul   $0x4f92,%eax,%eax
  40157a:	89 44 24 08          	mov    %eax,0x8(%rsp)
  40157e:	8b 44 24 10          	mov    0x10(%rsp),%eax
  401582:	69 c0 75 1f 00 00    	imul   $0x1f75,%eax,%eax
  401588:	89 44 24 10          	mov    %eax,0x10(%rsp)
  40158c:	8b 44 24 14          	mov    0x14(%rsp),%eax
  401590:	69 c0 7e 08 00 00    	imul   $0x87e,%eax,%eax
  401596:	89 44 24 14          	mov    %eax,0x14(%rsp)
  40159a:	8b 44 24 1c          	mov    0x1c(%rsp),%eax
  40159e:	69 c0 a6 4a 00 00    	imul   $0x4aa6,%eax,%eax
  4015a4:	89 44 24 1c          	mov    %eax,0x1c(%rsp)
  4015a8:	8b 44 24 10          	mov    0x10(%rsp),%eax
  4015ac:	69 c0 6c e4 00 00    	imul   $0xe46c,%eax,%eax
  4015b2:	89 44 24 10          	mov    %eax,0x10(%rsp)
  4015b6:	8b 44 24 10          	mov    0x10(%rsp),%eax
  4015ba:	69 c0 9b 4f 00 00    	imul   $0x4f9b,%eax,%eax
  4015c0:	89 44 24 10          	mov    %eax,0x10(%rsp)
  4015c4:	8b 44 24 14          	mov    0x14(%rsp),%eax
  4015c8:	69 c0 80 4f 00 00    	imul   $0x4f80,%eax,%eax
  4015ce:	89 44 24 14          	mov    %eax,0x14(%rsp)
  4015d2:	8b 44 24 20          	mov    0x20(%rsp),%eax
  4015d6:	69 c0 a8 3b 00 00    	imul   $0x3ba8,%eax,%eax
  4015dc:	89 44 24 20          	mov    %eax,0x20(%rsp)
  4015e0:	8b 44 24 18          	mov    0x18(%rsp),%eax
  4015e4:	69 c0 c5 e3 00 00    	imul   $0xe3c5,%eax,%eax
  4015ea:	89 44 24 18          	mov    %eax,0x18(%rsp)
  4015ee:	8b 44 24 04          	mov    0x4(%rsp),%eax
  4015f2:	69 c0 7e 36 00 00    	imul   $0x367e,%eax,%eax
  4015f8:	89 44 24 04          	mov    %eax,0x4(%rsp)
  4015fc:	8b 44 24 10          	mov    0x10(%rsp),%eax
  401600:	69 c0 f9 2f 00 00    	imul   $0x2ff9,%eax,%eax
  401606:	89 44 24 10          	mov    %eax,0x10(%rsp)
  40160a:	8b 44 24 10          	mov    0x10(%rsp),%eax
  40160e:	69 c0 5f 38 00 00    	imul   $0x385f,%eax,%eax
  401614:	89 44 24 10          	mov    %eax,0x10(%rsp)
  401618:	8b 44 24 24          	mov    0x24(%rsp),%eax
  40161c:	69 c0 43 bb 00 00    	imul   $0xbb43,%eax,%eax
  401622:	89 44 24 24          	mov    %eax,0x24(%rsp)
  401626:	8b 44 24 10          	mov    0x10(%rsp),%eax
  40162a:	69 c0 49 63 00 00    	imul   $0x6349,%eax,%eax
  401630:	89 44 24 10          	mov    %eax,0x10(%rsp)
  401634:	8b 44 24 24          	mov    0x24(%rsp),%eax
  401638:	69 c0 c4 1a 00 00    	imul   $0x1ac4,%eax,%eax
  40163e:	89 44 24 24          	mov    %eax,0x24(%rsp)
  401642:	8b 04 24             	mov    (%rsp),%eax
  401645:	69 c0 12 5d 00 00    	imul   $0x5d12,%eax,%eax
  40164b:	89 04 24             	mov    %eax,(%rsp)
  40164e:	8b 44 24 1c          	mov    0x1c(%rsp),%eax
  401652:	69 c0 c1 39 00 00    	imul   $0x39c1,%eax,%eax
  401658:	89 44 24 1c          	mov    %eax,0x1c(%rsp)
  40165c:	8b 04 24             	mov    (%rsp),%eax
  40165f:	69 c0 32 48 00 00    	imul   $0x4832,%eax,%eax
  401665:	89 04 24             	mov    %eax,(%rsp)
  401668:	8b 44 24 04          	mov    0x4(%rsp),%eax
  40166c:	69 c0 ad bb 00 00    	imul   $0xbbad,%eax,%eax
  401672:	89 44 24 04          	mov    %eax,0x4(%rsp)
  401676:	8b 44 24 04          	mov    0x4(%rsp),%eax
  40167a:	69 c0 2b 32 00 00    	imul   $0x322b,%eax,%eax
  401680:	89 44 24 04          	mov    %eax,0x4(%rsp)
  401684:	8b 44 24 08          	mov    0x8(%rsp),%eax
  401688:	69 c0 7f 16 00 00    	imul   $0x167f,%eax,%eax
  40168e:	89 44 24 08          	mov    %eax,0x8(%rsp)
  401692:	8b 44 24 18          	mov    0x18(%rsp),%eax
  401696:	69 c0 1e db 00 00    	imul   $0xdb1e,%eax,%eax
  40169c:	89 44 24 18          	mov    %eax,0x18(%rsp)
  4016a0:	8b 44 24 10          	mov    0x10(%rsp),%eax
  4016a4:	69 c0 a1 e6 00 00    	imul   $0xe6a1,%eax,%eax
  4016aa:	89 44 24 10          	mov    %eax,0x10(%rsp)
  4016ae:	8b 44 24 20          	mov    0x20(%rsp),%eax
  4016b2:	69 c0 1c d4 00 00    	imul   $0xd41c,%eax,%eax
  4016b8:	89 44 24 20          	mov    %eax,0x20(%rsp)
  4016bc:	8b 44 24 14          	mov    0x14(%rsp),%eax
  4016c0:	69 c0 11 79 00 00    	imul   $0x7911,%eax,%eax
  4016c6:	89 44 24 14          	mov    %eax,0x14(%rsp)
  4016ca:	8b 44 24 10          	mov    0x10(%rsp),%eax
  4016ce:	69 c0 d7 f2 00 00    	imul   $0xf2d7,%eax,%eax
  4016d4:	89 44 24 10          	mov    %eax,0x10(%rsp)
  4016d8:	8b 44 24 18          	mov    0x18(%rsp),%eax
  4016dc:	69 c0 91 db 00 00    	imul   $0xdb91,%eax,%eax
  4016e2:	89 44 24 18          	mov    %eax,0x18(%rsp)
  4016e6:	8b 44 24 18          	mov    0x18(%rsp),%eax
  4016ea:	69 c0 d2 75 00 00    	imul   $0x75d2,%eax,%eax
  4016f0:	89 44 24 18          	mov    %eax,0x18(%rsp)
  4016f4:	8b 44 24 04          	mov    0x4(%rsp),%eax
  4016f8:	69 c0 9b dd 00 00    	imul   $0xdd9b,%eax,%eax
  4016fe:	89 44 24 04          	mov    %eax,0x4(%rsp)
  401702:	8b 44 24 24          	mov    0x24(%rsp),%eax
  401706:	69 c0 a5 6f 00 00    	imul   $0x6fa5,%eax,%eax
  40170c:	89 44 24 24          	mov    %eax,0x24(%rsp)
  401710:	8b 44 24 24          	mov    0x24(%rsp),%eax
  401714:	69 c0 8a 6d 00 00    	imul   $0x6d8a,%eax,%eax
  40171a:	89 44 24 24          	mov    %eax,0x24(%rsp)
  40171e:	8b 44 24 10          	mov    0x10(%rsp),%eax
  401722:	69 c0 b5 62 00 00    	imul   $0x62b5,%eax,%eax
  401728:	89 44 24 10          	mov    %eax,0x10(%rsp)
  40172c:	8b 04 24             	mov    (%rsp),%eax
  40172f:	69 c0 3f 49 00 00    	imul   $0x493f,%eax,%eax
  401735:	89 04 24             	mov    %eax,(%rsp)
  401738:	8b 04 24             	mov    (%rsp),%eax
  40173b:	69 c0 8c e9 00 00    	imul   $0xe98c,%eax,%eax
  401741:	89 04 24             	mov    %eax,(%rsp)
  401744:	8b 44 24 0c          	mov    0xc(%rsp),%eax
  401748:	69 c0 c1 3d 00 00    	imul   $0x3dc1,%eax,%eax
  40174e:	89 44 24 0c          	mov    %eax,0xc(%rsp)
  401752:	8b 44 24 20          	mov    0x20(%rsp),%eax
  401756:	69 c0 05 a5 00 00    	imul   $0xa505,%eax,%eax
  40175c:	89 44 24 20          	mov    %eax,0x20(%rsp)
  401760:	ba 00 00 00 00       	mov    $0x0,%edx
  401765:	b8 00 00 00 00       	mov    $0x0,%eax
  40176a:	eb 0a                	jmp    401776 <scramble+0x491>
  40176c:	89 d1                	mov    %edx,%ecx
  40176e:	8b 0c 8c             	mov    (%rsp,%rcx,4),%ecx
  401771:	01 c8                	add    %ecx,%eax
  401773:	83 c2 01             	add    $0x1,%edx
  401776:	83 fa 09             	cmp    $0x9,%edx
  401779:	76 f1                	jbe    40176c <scramble+0x487>
  40177b:	48 8b 74 24 28       	mov    0x28(%rsp),%rsi
  401780:	64 48 33 34 25 28 00 	xor    %fs:0x28,%rsi
  401787:	00 00 
  401789:	74 05                	je     401790 <scramble+0x4ab>
  40178b:	e8 10 f5 ff ff       	callq  400ca0 <__stack_chk_fail@plt>
  401790:	48 83 c4 38          	add    $0x38,%rsp
  401794:	c3                   	retq   

0000000000401795 <getbuf>:
  401795:	48 83 ec 38          	sub    $0x38,%rsp
  401799:	48 89 e7             	mov    %rsp,%rdi
  40179c:	e8 a3 03 00 00       	callq  401b44 <Gets>
  4017a1:	b8 01 00 00 00       	mov    $0x1,%eax
  4017a6:	48 83 c4 38          	add    $0x38,%rsp
  4017aa:	c3                   	retq   

00000000004017ab <touch1>:
  4017ab:	48 83 ec 08          	sub    $0x8,%rsp
  4017af:	c7 05 43 3d 20 00 01 	movl   $0x1,0x203d43(%rip)        # 6054fc <vlevel>
  4017b6:	00 00 00 
  4017b9:	bf cd 31 40 00       	mov    $0x4031cd,%edi
  4017be:	e8 bd f4 ff ff       	callq  400c80 <puts@plt>
  4017c3:	bf 01 00 00 00       	mov    $0x1,%edi
  4017c8:	e8 bc 05 00 00       	callq  401d89 <validate>
  4017cd:	bf 00 00 00 00       	mov    $0x0,%edi
  4017d2:	e8 29 f6 ff ff       	callq  400e00 <exit@plt>

00000000004017d7 <touch2>:
  4017d7:	48 83 ec 08          	sub    $0x8,%rsp
  4017db:	89 fa                	mov    %edi,%edx
  4017dd:	c7 05 15 3d 20 00 02 	movl   $0x2,0x203d15(%rip)        # 6054fc <vlevel>
  4017e4:	00 00 00 
  4017e7:	39 3d 17 3d 20 00    	cmp    %edi,0x203d17(%rip)        # 605504 <cookie>
  4017ed:	75 20                	jne    40180f <touch2+0x38>
  4017ef:	be f0 31 40 00       	mov    $0x4031f0,%esi
  4017f4:	bf 01 00 00 00       	mov    $0x1,%edi
  4017f9:	b8 00 00 00 00       	mov    $0x0,%eax
  4017fe:	e8 ad f5 ff ff       	callq  400db0 <__printf_chk@plt>
  401803:	bf 02 00 00 00       	mov    $0x2,%edi
  401808:	e8 7c 05 00 00       	callq  401d89 <validate>
  40180d:	eb 1e                	jmp    40182d <touch2+0x56>
  40180f:	be 18 32 40 00       	mov    $0x403218,%esi
  401814:	bf 01 00 00 00       	mov    $0x1,%edi
  401819:	b8 00 00 00 00       	mov    $0x0,%eax
  40181e:	e8 8d f5 ff ff       	callq  400db0 <__printf_chk@plt>
  401823:	bf 02 00 00 00       	mov    $0x2,%edi
  401828:	e8 1e 06 00 00       	callq  401e4b <fail>
  40182d:	bf 00 00 00 00       	mov    $0x0,%edi
  401832:	e8 c9 f5 ff ff       	callq  400e00 <exit@plt>

0000000000401837 <hexmatch>:
  401837:	41 54                	push   %r12
  401839:	55                   	push   %rbp
  40183a:	53                   	push   %rbx
  40183b:	48 83 c4 80          	add    $0xffffffffffffff80,%rsp
  40183f:	89 fd                	mov    %edi,%ebp
  401841:	48 89 f3             	mov    %rsi,%rbx
  401844:	64 48 8b 04 25 28 00 	mov    %fs:0x28,%rax
  40184b:	00 00 
  40184d:	48 89 44 24 78       	mov    %rax,0x78(%rsp)
  401852:	31 c0                	xor    %eax,%eax
  401854:	e8 17 f5 ff ff       	callq  400d70 <random@plt>
  401859:	48 89 c1             	mov    %rax,%rcx
  40185c:	48 ba 0b d7 a3 70 3d 	movabs $0xa3d70a3d70a3d70b,%rdx
  401863:	0a d7 a3 
  401866:	48 f7 ea             	imul   %rdx
  401869:	48 01 ca             	add    %rcx,%rdx
  40186c:	48 c1 fa 06          	sar    $0x6,%rdx
  401870:	48 89 c8             	mov    %rcx,%rax
  401873:	48 c1 f8 3f          	sar    $0x3f,%rax
  401877:	48 29 c2             	sub    %rax,%rdx
  40187a:	48 8d 04 92          	lea    (%rdx,%rdx,4),%rax
  40187e:	48 8d 14 80          	lea    (%rax,%rax,4),%rdx
  401882:	48 8d 04 95 00 00 00 	lea    0x0(,%rdx,4),%rax
  401889:	00 
  40188a:	48 29 c1             	sub    %rax,%rcx
  40188d:	4c 8d 24 0c          	lea    (%rsp,%rcx,1),%r12
  401891:	41 89 e8             	mov    %ebp,%r8d
  401894:	b9 ea 31 40 00       	mov    $0x4031ea,%ecx
  401899:	48 c7 c2 ff ff ff ff 	mov    $0xffffffffffffffff,%rdx
  4018a0:	be 01 00 00 00       	mov    $0x1,%esi
  4018a5:	4c 89 e7             	mov    %r12,%rdi
  4018a8:	b8 00 00 00 00       	mov    $0x0,%eax
  4018ad:	e8 7e f5 ff ff       	callq  400e30 <__sprintf_chk@plt>
  4018b2:	ba 09 00 00 00       	mov    $0x9,%edx
  4018b7:	4c 89 e6             	mov    %r12,%rsi
  4018ba:	48 89 df             	mov    %rbx,%rdi
  4018bd:	e8 9e f3 ff ff       	callq  400c60 <strncmp@plt>
  4018c2:	85 c0                	test   %eax,%eax
  4018c4:	0f 94 c0             	sete   %al
  4018c7:	48 8b 5c 24 78       	mov    0x78(%rsp),%rbx
  4018cc:	64 48 33 1c 25 28 00 	xor    %fs:0x28,%rbx
  4018d3:	00 00 
  4018d5:	74 05                	je     4018dc <hexmatch+0xa5>
  4018d7:	e8 c4 f3 ff ff       	callq  400ca0 <__stack_chk_fail@plt>
  4018dc:	0f b6 c0             	movzbl %al,%eax
  4018df:	48 83 ec 80          	sub    $0xffffffffffffff80,%rsp
  4018e3:	5b                   	pop    %rbx
  4018e4:	5d                   	pop    %rbp
  4018e5:	41 5c                	pop    %r12
  4018e7:	c3                   	retq   

00000000004018e8 <touch3>:
  4018e8:	53                   	push   %rbx
  4018e9:	48 89 fb             	mov    %rdi,%rbx
  4018ec:	c7 05 06 3c 20 00 03 	movl   $0x3,0x203c06(%rip)        # 6054fc <vlevel>
  4018f3:	00 00 00 
  4018f6:	48 89 fe             	mov    %rdi,%rsi
  4018f9:	8b 3d 05 3c 20 00    	mov    0x203c05(%rip),%edi        # 605504 <cookie>
  4018ff:	e8 33 ff ff ff       	callq  401837 <hexmatch>
  401904:	85 c0                	test   %eax,%eax
  401906:	74 23                	je     40192b <touch3+0x43>
  401908:	48 89 da             	mov    %rbx,%rdx
  40190b:	be 40 32 40 00       	mov    $0x403240,%esi
  401910:	bf 01 00 00 00       	mov    $0x1,%edi
  401915:	b8 00 00 00 00       	mov    $0x0,%eax
  40191a:	e8 91 f4 ff ff       	callq  400db0 <__printf_chk@plt>
  40191f:	bf 03 00 00 00       	mov    $0x3,%edi
  401924:	e8 60 04 00 00       	callq  401d89 <validate>
  401929:	eb 21                	jmp    40194c <touch3+0x64>
  40192b:	48 89 da             	mov    %rbx,%rdx
  40192e:	be 68 32 40 00       	mov    $0x403268,%esi
  401933:	bf 01 00 00 00       	mov    $0x1,%edi
  401938:	b8 00 00 00 00       	mov    $0x0,%eax
  40193d:	e8 6e f4 ff ff       	callq  400db0 <__printf_chk@plt>
  401942:	bf 03 00 00 00       	mov    $0x3,%edi
  401947:	e8 ff 04 00 00       	callq  401e4b <fail>
  40194c:	bf 00 00 00 00       	mov    $0x0,%edi
  401951:	e8 aa f4 ff ff       	callq  400e00 <exit@plt>

0000000000401956 <test>:
  401956:	48 83 ec 08          	sub    $0x8,%rsp
  40195a:	b8 00 00 00 00       	mov    $0x0,%eax
  40195f:	e8 31 fe ff ff       	callq  401795 <getbuf>
  401964:	89 c2                	mov    %eax,%edx
  401966:	be 90 32 40 00       	mov    $0x403290,%esi
  40196b:	bf 01 00 00 00       	mov    $0x1,%edi
  401970:	b8 00 00 00 00       	mov    $0x0,%eax
  401975:	e8 36 f4 ff ff       	callq  400db0 <__printf_chk@plt>
  40197a:	48 83 c4 08          	add    $0x8,%rsp
  40197e:	c3                   	retq   

000000000040197f <start_farm>:
  40197f:	b8 01 00 00 00       	mov    $0x1,%eax
  401984:	c3                   	retq   

0000000000401985 <setval_408>:
  401985:	c7 07 18 18 90 90    	movl   $0x90901818,(%rdi)
  40198b:	c3                   	retq   

000000000040198c <setval_366>:
  40198c:	c7 07 48 89 c7 c3    	movl   $0xc3c78948,(%rdi)
  401992:	c3                   	retq   

0000000000401993 <addval_241>:
  401993:	8d 87 78 90 90 c3    	lea    -0x3c6f6f88(%rdi),%eax
  401999:	c3                   	retq   

000000000040199a <getval_172>:
  40199a:	b8 48 89 c7 c2       	mov    $0xc2c78948,%eax
  40199f:	c3                   	retq   

00000000004019a0 <setval_227>:
  4019a0:	c7 07 d1 48 89 c7    	movl   $0xc78948d1,(%rdi)
  4019a6:	c3                   	retq   

00000000004019a7 <setval_104>:
  4019a7:	c7 07 48 09 c7 c3    	movl   $0xc3c70948,(%rdi)
  4019ad:	c3                   	retq   

00000000004019ae <getval_352>:
  4019ae:	b8 a2 21 d7 58       	mov    $0x58d721a2,%eax
  4019b3:	c3                   	retq   

00000000004019b4 <addval_443>:
  4019b4:	8d 87 95 54 58 90    	lea    -0x6fa7ab6b(%rdi),%eax
  4019ba:	c3                   	retq   

00000000004019bb <mid_farm>:
  4019bb:	b8 01 00 00 00       	mov    $0x1,%eax
  4019c0:	c3                   	retq   

00000000004019c1 <add_xy>:
  4019c1:	48 8d 04 37          	lea    (%rdi,%rsi,1),%rax
  4019c5:	c3                   	retq   

00000000004019c6 <getval_213>:
  4019c6:	b8 89 d1 38 c9       	mov    $0xc938d189,%eax
  4019cb:	c3                   	retq   

00000000004019cc <setval_376>:
  4019cc:	c7 07 e2 48 8d e0    	movl   $0xe08d48e2,(%rdi)
  4019d2:	c3                   	retq   

00000000004019d3 <setval_223>:
  4019d3:	c7 07 a1 89 c2 94    	movl   $0x94c289a1,(%rdi)
  4019d9:	c3                   	retq   

00000000004019da <setval_390>:
  4019da:	c7 07 48 89 e0 91    	movl   $0x91e08948,(%rdi)
  4019e0:	c3                   	retq   

00000000004019e1 <setval_200>:
  4019e1:	c7 07 89 ce 28 d2    	movl   $0xd228ce89,(%rdi)
  4019e7:	c3                   	retq   

00000000004019e8 <setval_427>:
  4019e8:	c7 07 12 48 c9 e0    	movl   $0xe0c94812,(%rdi)
  4019ee:	c3                   	retq   

00000000004019ef <addval_454>:
  4019ef:	8d 87 09 c2 84 db    	lea    -0x247b3df7(%rdi),%eax
  4019f5:	c3                   	retq   

00000000004019f6 <addval_467>:
  4019f6:	8d 87 99 c2 08 db    	lea    -0x24f73d67(%rdi),%eax
  4019fc:	c3                   	retq   

00000000004019fd <addval_492>:
  4019fd:	8d 87 89 d1 c2 09    	lea    0x9c2d189(%rdi),%eax
  401a03:	c3                   	retq   

0000000000401a04 <getval_204>:
  401a04:	b8 89 ce 18 d2       	mov    $0xd218ce89,%eax
  401a09:	c3                   	retq   

0000000000401a0a <addval_435>:
  401a0a:	8d 87 89 d1 20 d2    	lea    -0x2ddf2e77(%rdi),%eax
  401a10:	c3                   	retq   

0000000000401a11 <addval_216>:
  401a11:	8d 87 89 d1 78 db    	lea    -0x24872e77(%rdi),%eax
  401a17:	c3                   	retq   

0000000000401a18 <getval_378>:
  401a18:	b8 89 d1 78 c0       	mov    $0xc078d189,%eax
  401a1d:	c3                   	retq   

0000000000401a1e <getval_318>:
  401a1e:	b8 40 89 e0 c3       	mov    $0xc3e08940,%eax
  401a23:	c3                   	retq   

0000000000401a24 <addval_401>:
  401a24:	8d 87 89 ce 38 c0    	lea    -0x3fc73177(%rdi),%eax
  401a2a:	c3                   	retq   

0000000000401a2b <getval_361>:
  401a2b:	b8 48 89 e0 c1       	mov    $0xc1e08948,%eax
  401a30:	c3                   	retq   

0000000000401a31 <addval_486>:
  401a31:	8d 87 09 d1 84 d2    	lea    -0x2d7b2ef7(%rdi),%eax
  401a37:	c3                   	retq   

0000000000401a38 <addval_150>:
  401a38:	8d 87 89 ce 38 db    	lea    -0x24c73177(%rdi),%eax
  401a3e:	c3                   	retq   

0000000000401a3f <addval_423>:
  401a3f:	8d 87 48 89 e0 c3    	lea    -0x3c1f76b8(%rdi),%eax
  401a45:	c3                   	retq   

0000000000401a46 <setval_214>:
  401a46:	c7 07 7e a9 ce 90    	movl   $0x90cea97e,(%rdi)
  401a4c:	c3                   	retq   

0000000000401a4d <addval_141>:
  401a4d:	8d 87 09 ce 20 c0    	lea    -0x3fdf31f7(%rdi),%eax
  401a53:	c3                   	retq   

0000000000401a54 <setval_109>:
  401a54:	c7 07 d6 48 89 e0    	movl   $0xe08948d6,(%rdi)
  401a5a:	c3                   	retq   

0000000000401a5b <addval_126>:
  401a5b:	8d 87 88 c2 38 c9    	lea    -0x36c73d78(%rdi),%eax
  401a61:	c3                   	retq   

0000000000401a62 <getval_173>:
  401a62:	b8 48 89 e0 92       	mov    $0x92e08948,%eax
  401a67:	c3                   	retq   

0000000000401a68 <addval_442>:
  401a68:	8d 87 a9 c2 08 c0    	lea    -0x3ff73d57(%rdi),%eax
  401a6e:	c3                   	retq   

0000000000401a6f <setval_278>:
  401a6f:	c7 07 21 89 ce 91    	movl   $0x91ce8921,(%rdi)
  401a75:	c3                   	retq   

0000000000401a76 <setval_195>:
  401a76:	c7 07 8b d1 20 c9    	movl   $0xc920d18b,(%rdi)
  401a7c:	c3                   	retq   

0000000000401a7d <setval_388>:
  401a7d:	c7 07 8d d1 08 d2    	movl   $0xd208d18d,(%rdi)
  401a83:	c3                   	retq   

0000000000401a84 <getval_128>:
  401a84:	b8 89 c2 38 d2       	mov    $0xd238c289,%eax
  401a89:	c3                   	retq   

0000000000401a8a <setval_187>:
  401a8a:	c7 07 89 c2 84 c9    	movl   $0xc984c289,(%rdi)
  401a90:	c3                   	retq   

0000000000401a91 <setval_299>:
  401a91:	c7 07 89 ce 18 c9    	movl   $0xc918ce89,(%rdi)
  401a97:	c3                   	retq   

0000000000401a98 <getval_406>:
  401a98:	b8 89 c2 90 c1       	mov    $0xc190c289,%eax
  401a9d:	c3                   	retq   

0000000000401a9e <end_farm>:
  401a9e:	b8 01 00 00 00       	mov    $0x1,%eax
  401aa3:	c3                   	retq   

0000000000401aa4 <save_char>:
  401aa4:	8b 05 7a 46 20 00    	mov    0x20467a(%rip),%eax        # 606124 <gets_cnt>
  401aaa:	3d ff 03 00 00       	cmp    $0x3ff,%eax
  401aaf:	7f 49                	jg     401afa <save_char+0x56>
  401ab1:	8d 14 40             	lea    (%rax,%rax,2),%edx
  401ab4:	89 f9                	mov    %edi,%ecx
  401ab6:	c0 e9 04             	shr    $0x4,%cl
  401ab9:	83 e1 0f             	and    $0xf,%ecx
  401abc:	0f b6 b1 b0 35 40 00 	movzbl 0x4035b0(%rcx),%esi
  401ac3:	48 63 ca             	movslq %edx,%rcx
  401ac6:	40 88 b1 20 55 60 00 	mov    %sil,0x605520(%rcx)
  401acd:	8d 4a 01             	lea    0x1(%rdx),%ecx
  401ad0:	83 e7 0f             	and    $0xf,%edi
  401ad3:	0f b6 b7 b0 35 40 00 	movzbl 0x4035b0(%rdi),%esi
  401ada:	48 63 c9             	movslq %ecx,%rcx
  401add:	40 88 b1 20 55 60 00 	mov    %sil,0x605520(%rcx)
  401ae4:	83 c2 02             	add    $0x2,%edx
  401ae7:	48 63 d2             	movslq %edx,%rdx
  401aea:	c6 82 20 55 60 00 20 	movb   $0x20,0x605520(%rdx)
  401af1:	83 c0 01             	add    $0x1,%eax
  401af4:	89 05 2a 46 20 00    	mov    %eax,0x20462a(%rip)        # 606124 <gets_cnt>
  401afa:	f3 c3                	repz retq 

0000000000401afc <save_term>:
  401afc:	8b 05 22 46 20 00    	mov    0x204622(%rip),%eax        # 606124 <gets_cnt>
  401b02:	8d 04 40             	lea    (%rax,%rax,2),%eax
  401b05:	48 98                	cltq   
  401b07:	c6 80 20 55 60 00 00 	movb   $0x0,0x605520(%rax)
  401b0e:	c3                   	retq   

0000000000401b0f <check_fail>:
  401b0f:	48 83 ec 08          	sub    $0x8,%rsp
  401b13:	0f be 15 0e 46 20 00 	movsbl 0x20460e(%rip),%edx        # 606128 <target_prefix>
  401b1a:	41 b8 20 55 60 00    	mov    $0x605520,%r8d
  401b20:	8b 0d d2 39 20 00    	mov    0x2039d2(%rip),%ecx        # 6054f8 <check_level>
  401b26:	be b3 32 40 00       	mov    $0x4032b3,%esi
  401b2b:	bf 01 00 00 00       	mov    $0x1,%edi
  401b30:	b8 00 00 00 00       	mov    $0x0,%eax
  401b35:	e8 76 f2 ff ff       	callq  400db0 <__printf_chk@plt>
  401b3a:	bf 01 00 00 00       	mov    $0x1,%edi
  401b3f:	e8 bc f2 ff ff       	callq  400e00 <exit@plt>

0000000000401b44 <Gets>:
  401b44:	41 54                	push   %r12
  401b46:	55                   	push   %rbp
  401b47:	53                   	push   %rbx
  401b48:	49 89 fc             	mov    %rdi,%r12
  401b4b:	c7 05 cf 45 20 00 00 	movl   $0x0,0x2045cf(%rip)        # 606124 <gets_cnt>
  401b52:	00 00 00 
  401b55:	48 89 fb             	mov    %rdi,%rbx
  401b58:	eb 11                	jmp    401b6b <Gets+0x27>
  401b5a:	48 8d 6b 01          	lea    0x1(%rbx),%rbp
  401b5e:	88 03                	mov    %al,(%rbx)
  401b60:	0f b6 f8             	movzbl %al,%edi
  401b63:	e8 3c ff ff ff       	callq  401aa4 <save_char>
  401b68:	48 89 eb             	mov    %rbp,%rbx
  401b6b:	48 8b 3d 7e 39 20 00 	mov    0x20397e(%rip),%rdi        # 6054f0 <infile>
  401b72:	e8 09 f2 ff ff       	callq  400d80 <_IO_getc@plt>
  401b77:	83 f8 ff             	cmp    $0xffffffff,%eax
  401b7a:	74 05                	je     401b81 <Gets+0x3d>
  401b7c:	83 f8 0a             	cmp    $0xa,%eax
  401b7f:	75 d9                	jne    401b5a <Gets+0x16>
  401b81:	c6 03 00             	movb   $0x0,(%rbx)
  401b84:	b8 00 00 00 00       	mov    $0x0,%eax
  401b89:	e8 6e ff ff ff       	callq  401afc <save_term>
  401b8e:	4c 89 e0             	mov    %r12,%rax
  401b91:	5b                   	pop    %rbx
  401b92:	5d                   	pop    %rbp
  401b93:	41 5c                	pop    %r12
  401b95:	c3                   	retq   

0000000000401b96 <notify_server>:
  401b96:	53                   	push   %rbx
  401b97:	48 81 ec 10 40 00 00 	sub    $0x4010,%rsp
  401b9e:	64 48 8b 04 25 28 00 	mov    %fs:0x28,%rax
  401ba5:	00 00 
  401ba7:	48 89 84 24 08 40 00 	mov    %rax,0x4008(%rsp)
  401bae:	00 
  401baf:	31 c0                	xor    %eax,%eax
  401bb1:	83 3d 50 39 20 00 00 	cmpl   $0x0,0x203950(%rip)        # 605508 <is_checker>
  401bb8:	0f 85 aa 01 00 00    	jne    401d68 <notify_server+0x1d2>
  401bbe:	89 fb                	mov    %edi,%ebx
  401bc0:	8b 05 5e 45 20 00    	mov    0x20455e(%rip),%eax        # 606124 <gets_cnt>
  401bc6:	83 c0 64             	add    $0x64,%eax
  401bc9:	3d 00 20 00 00       	cmp    $0x2000,%eax
  401bce:	7e 1e                	jle    401bee <notify_server+0x58>
  401bd0:	be e8 33 40 00       	mov    $0x4033e8,%esi
  401bd5:	bf 01 00 00 00       	mov    $0x1,%edi
  401bda:	b8 00 00 00 00       	mov    $0x0,%eax
  401bdf:	e8 cc f1 ff ff       	callq  400db0 <__printf_chk@plt>
  401be4:	bf 01 00 00 00       	mov    $0x1,%edi
  401be9:	e8 12 f2 ff ff       	callq  400e00 <exit@plt>
  401bee:	0f be 05 33 45 20 00 	movsbl 0x204533(%rip),%eax        # 606128 <target_prefix>
  401bf5:	83 3d 8c 38 20 00 00 	cmpl   $0x0,0x20388c(%rip)        # 605488 <notify>
  401bfc:	74 08                	je     401c06 <notify_server+0x70>
  401bfe:	8b 15 fc 38 20 00    	mov    0x2038fc(%rip),%edx        # 605500 <authkey>
  401c04:	eb 05                	jmp    401c0b <notify_server+0x75>
  401c06:	ba ff ff ff ff       	mov    $0xffffffff,%edx
  401c0b:	85 db                	test   %ebx,%ebx
  401c0d:	74 08                	je     401c17 <notify_server+0x81>
  401c0f:	41 b9 c9 32 40 00    	mov    $0x4032c9,%r9d
  401c15:	eb 06                	jmp    401c1d <notify_server+0x87>
  401c17:	41 b9 ce 32 40 00    	mov    $0x4032ce,%r9d
  401c1d:	68 20 55 60 00       	pushq  $0x605520
  401c22:	56                   	push   %rsi
  401c23:	50                   	push   %rax
  401c24:	52                   	push   %rdx
  401c25:	44 8b 05 1c 35 20 00 	mov    0x20351c(%rip),%r8d        # 605148 <target_id>
  401c2c:	b9 d3 32 40 00       	mov    $0x4032d3,%ecx
  401c31:	ba 00 20 00 00       	mov    $0x2000,%edx
  401c36:	be 01 00 00 00       	mov    $0x1,%esi
  401c3b:	48 8d 7c 24 20       	lea    0x20(%rsp),%rdi
  401c40:	b8 00 00 00 00       	mov    $0x0,%eax
  401c45:	e8 e6 f1 ff ff       	callq  400e30 <__sprintf_chk@plt>
  401c4a:	48 83 c4 20          	add    $0x20,%rsp
  401c4e:	83 3d 33 38 20 00 00 	cmpl   $0x0,0x203833(%rip)        # 605488 <notify>
  401c55:	0f 84 81 00 00 00    	je     401cdc <notify_server+0x146>
  401c5b:	85 db                	test   %ebx,%ebx
  401c5d:	74 6e                	je     401ccd <notify_server+0x137>
  401c5f:	4c 8d 8c 24 00 20 00 	lea    0x2000(%rsp),%r9
  401c66:	00 
  401c67:	41 b8 00 00 00 00    	mov    $0x0,%r8d
  401c6d:	48 89 e1             	mov    %rsp,%rcx
  401c70:	48 8b 15 d9 34 20 00 	mov    0x2034d9(%rip),%rdx        # 605150 <lab>
  401c77:	48 8b 35 da 34 20 00 	mov    0x2034da(%rip),%rsi        # 605158 <course>
  401c7e:	48 8b 3d bb 34 20 00 	mov    0x2034bb(%rip),%rdi        # 605140 <user_id>
  401c85:	e8 ef 10 00 00       	callq  402d79 <driver_post>
  401c8a:	85 c0                	test   %eax,%eax
  401c8c:	79 26                	jns    401cb4 <notify_server+0x11e>
  401c8e:	48 8d 94 24 00 20 00 	lea    0x2000(%rsp),%rdx
  401c95:	00 
  401c96:	be ef 32 40 00       	mov    $0x4032ef,%esi
  401c9b:	bf 01 00 00 00       	mov    $0x1,%edi
  401ca0:	b8 00 00 00 00       	mov    $0x0,%eax
  401ca5:	e8 06 f1 ff ff       	callq  400db0 <__printf_chk@plt>
  401caa:	bf 01 00 00 00       	mov    $0x1,%edi
  401caf:	e8 4c f1 ff ff       	callq  400e00 <exit@plt>
  401cb4:	bf 18 34 40 00       	mov    $0x403418,%edi
  401cb9:	e8 c2 ef ff ff       	callq  400c80 <puts@plt>
  401cbe:	bf fb 32 40 00       	mov    $0x4032fb,%edi
  401cc3:	e8 b8 ef ff ff       	callq  400c80 <puts@plt>
  401cc8:	e9 9b 00 00 00       	jmpq   401d68 <notify_server+0x1d2>
  401ccd:	bf 05 33 40 00       	mov    $0x403305,%edi
  401cd2:	e8 a9 ef ff ff       	callq  400c80 <puts@plt>
  401cd7:	e9 8c 00 00 00       	jmpq   401d68 <notify_server+0x1d2>
  401cdc:	85 db                	test   %ebx,%ebx
  401cde:	74 07                	je     401ce7 <notify_server+0x151>
  401ce0:	ba c9 32 40 00       	mov    $0x4032c9,%edx
  401ce5:	eb 05                	jmp    401cec <notify_server+0x156>
  401ce7:	ba ce 32 40 00       	mov    $0x4032ce,%edx
  401cec:	be 50 34 40 00       	mov    $0x403450,%esi
  401cf1:	bf 01 00 00 00       	mov    $0x1,%edi
  401cf6:	b8 00 00 00 00       	mov    $0x0,%eax
  401cfb:	e8 b0 f0 ff ff       	callq  400db0 <__printf_chk@plt>
  401d00:	48 8b 15 39 34 20 00 	mov    0x203439(%rip),%rdx        # 605140 <user_id>
  401d07:	be 0c 33 40 00       	mov    $0x40330c,%esi
  401d0c:	bf 01 00 00 00       	mov    $0x1,%edi
  401d11:	b8 00 00 00 00       	mov    $0x0,%eax
  401d16:	e8 95 f0 ff ff       	callq  400db0 <__printf_chk@plt>
  401d1b:	48 8b 15 36 34 20 00 	mov    0x203436(%rip),%rdx        # 605158 <course>
  401d22:	be 19 33 40 00       	mov    $0x403319,%esi
  401d27:	bf 01 00 00 00       	mov    $0x1,%edi
  401d2c:	b8 00 00 00 00       	mov    $0x0,%eax
  401d31:	e8 7a f0 ff ff       	callq  400db0 <__printf_chk@plt>
  401d36:	48 8b 15 13 34 20 00 	mov    0x203413(%rip),%rdx        # 605150 <lab>
  401d3d:	be 25 33 40 00       	mov    $0x403325,%esi
  401d42:	bf 01 00 00 00       	mov    $0x1,%edi
  401d47:	b8 00 00 00 00       	mov    $0x0,%eax
  401d4c:	e8 5f f0 ff ff       	callq  400db0 <__printf_chk@plt>
  401d51:	48 89 e2             	mov    %rsp,%rdx
  401d54:	be 2e 33 40 00       	mov    $0x40332e,%esi
  401d59:	bf 01 00 00 00       	mov    $0x1,%edi
  401d5e:	b8 00 00 00 00       	mov    $0x0,%eax
  401d63:	e8 48 f0 ff ff       	callq  400db0 <__printf_chk@plt>
  401d68:	48 8b 84 24 08 40 00 	mov    0x4008(%rsp),%rax
  401d6f:	00 
  401d70:	64 48 33 04 25 28 00 	xor    %fs:0x28,%rax
  401d77:	00 00 
  401d79:	74 05                	je     401d80 <notify_server+0x1ea>
  401d7b:	e8 20 ef ff ff       	callq  400ca0 <__stack_chk_fail@plt>
  401d80:	48 81 c4 10 40 00 00 	add    $0x4010,%rsp
  401d87:	5b                   	pop    %rbx
  401d88:	c3                   	retq   

0000000000401d89 <validate>:
  401d89:	53                   	push   %rbx
  401d8a:	89 fb                	mov    %edi,%ebx
  401d8c:	83 3d 75 37 20 00 00 	cmpl   $0x0,0x203775(%rip)        # 605508 <is_checker>
  401d93:	74 6b                	je     401e00 <validate+0x77>
  401d95:	39 3d 61 37 20 00    	cmp    %edi,0x203761(%rip)        # 6054fc <vlevel>
  401d9b:	74 14                	je     401db1 <validate+0x28>
  401d9d:	bf 3a 33 40 00       	mov    $0x40333a,%edi
  401da2:	e8 d9 ee ff ff       	callq  400c80 <puts@plt>
  401da7:	b8 00 00 00 00       	mov    $0x0,%eax
  401dac:	e8 5e fd ff ff       	callq  401b0f <check_fail>
  401db1:	8b 15 41 37 20 00    	mov    0x203741(%rip),%edx        # 6054f8 <check_level>
  401db7:	39 d7                	cmp    %edx,%edi
  401db9:	74 20                	je     401ddb <validate+0x52>
  401dbb:	89 f9                	mov    %edi,%ecx
  401dbd:	be 78 34 40 00       	mov    $0x403478,%esi
  401dc2:	bf 01 00 00 00       	mov    $0x1,%edi
  401dc7:	b8 00 00 00 00       	mov    $0x0,%eax
  401dcc:	e8 df ef ff ff       	callq  400db0 <__printf_chk@plt>
  401dd1:	b8 00 00 00 00       	mov    $0x0,%eax
  401dd6:	e8 34 fd ff ff       	callq  401b0f <check_fail>
  401ddb:	0f be 15 46 43 20 00 	movsbl 0x204346(%rip),%edx        # 606128 <target_prefix>
  401de2:	41 b8 20 55 60 00    	mov    $0x605520,%r8d
  401de8:	89 f9                	mov    %edi,%ecx
  401dea:	be 58 33 40 00       	mov    $0x403358,%esi
  401def:	bf 01 00 00 00       	mov    $0x1,%edi
  401df4:	b8 00 00 00 00       	mov    $0x0,%eax
  401df9:	e8 b2 ef ff ff       	callq  400db0 <__printf_chk@plt>
  401dfe:	eb 49                	jmp    401e49 <validate+0xc0>
  401e00:	3b 3d f6 36 20 00    	cmp    0x2036f6(%rip),%edi        # 6054fc <vlevel>
  401e06:	74 18                	je     401e20 <validate+0x97>
  401e08:	bf 3a 33 40 00       	mov    $0x40333a,%edi
  401e0d:	e8 6e ee ff ff       	callq  400c80 <puts@plt>
  401e12:	89 de                	mov    %ebx,%esi
  401e14:	bf 00 00 00 00       	mov    $0x0,%edi
  401e19:	e8 78 fd ff ff       	callq  401b96 <notify_server>
  401e1e:	eb 29                	jmp    401e49 <validate+0xc0>
  401e20:	0f be 0d 01 43 20 00 	movsbl 0x204301(%rip),%ecx        # 606128 <target_prefix>
  401e27:	89 fa                	mov    %edi,%edx
  401e29:	be a0 34 40 00       	mov    $0x4034a0,%esi
  401e2e:	bf 01 00 00 00       	mov    $0x1,%edi
  401e33:	b8 00 00 00 00       	mov    $0x0,%eax
  401e38:	e8 73 ef ff ff       	callq  400db0 <__printf_chk@plt>
  401e3d:	89 de                	mov    %ebx,%esi
  401e3f:	bf 01 00 00 00       	mov    $0x1,%edi
  401e44:	e8 4d fd ff ff       	callq  401b96 <notify_server>
  401e49:	5b                   	pop    %rbx
  401e4a:	c3                   	retq   

0000000000401e4b <fail>:
  401e4b:	48 83 ec 08          	sub    $0x8,%rsp
  401e4f:	83 3d b2 36 20 00 00 	cmpl   $0x0,0x2036b2(%rip)        # 605508 <is_checker>
  401e56:	74 0a                	je     401e62 <fail+0x17>
  401e58:	b8 00 00 00 00       	mov    $0x0,%eax
  401e5d:	e8 ad fc ff ff       	callq  401b0f <check_fail>
  401e62:	89 fe                	mov    %edi,%esi
  401e64:	bf 00 00 00 00       	mov    $0x0,%edi
  401e69:	e8 28 fd ff ff       	callq  401b96 <notify_server>
  401e6e:	48 83 c4 08          	add    $0x8,%rsp
  401e72:	c3                   	retq   

0000000000401e73 <bushandler>:
  401e73:	48 83 ec 08          	sub    $0x8,%rsp
  401e77:	83 3d 8a 36 20 00 00 	cmpl   $0x0,0x20368a(%rip)        # 605508 <is_checker>
  401e7e:	74 14                	je     401e94 <bushandler+0x21>
  401e80:	bf 6d 33 40 00       	mov    $0x40336d,%edi
  401e85:	e8 f6 ed ff ff       	callq  400c80 <puts@plt>
  401e8a:	b8 00 00 00 00       	mov    $0x0,%eax
  401e8f:	e8 7b fc ff ff       	callq  401b0f <check_fail>
  401e94:	bf d8 34 40 00       	mov    $0x4034d8,%edi
  401e99:	e8 e2 ed ff ff       	callq  400c80 <puts@plt>
  401e9e:	bf 77 33 40 00       	mov    $0x403377,%edi
  401ea3:	e8 d8 ed ff ff       	callq  400c80 <puts@plt>
  401ea8:	be 00 00 00 00       	mov    $0x0,%esi
  401ead:	bf 00 00 00 00       	mov    $0x0,%edi
  401eb2:	e8 df fc ff ff       	callq  401b96 <notify_server>
  401eb7:	bf 01 00 00 00       	mov    $0x1,%edi
  401ebc:	e8 3f ef ff ff       	callq  400e00 <exit@plt>

0000000000401ec1 <seghandler>:
  401ec1:	48 83 ec 08          	sub    $0x8,%rsp
  401ec5:	83 3d 3c 36 20 00 00 	cmpl   $0x0,0x20363c(%rip)        # 605508 <is_checker>
  401ecc:	74 14                	je     401ee2 <seghandler+0x21>
  401ece:	bf 8d 33 40 00       	mov    $0x40338d,%edi
  401ed3:	e8 a8 ed ff ff       	callq  400c80 <puts@plt>
  401ed8:	b8 00 00 00 00       	mov    $0x0,%eax
  401edd:	e8 2d fc ff ff       	callq  401b0f <check_fail>
  401ee2:	bf f8 34 40 00       	mov    $0x4034f8,%edi
  401ee7:	e8 94 ed ff ff       	callq  400c80 <puts@plt>
  401eec:	bf 77 33 40 00       	mov    $0x403377,%edi
  401ef1:	e8 8a ed ff ff       	callq  400c80 <puts@plt>
  401ef6:	be 00 00 00 00       	mov    $0x0,%esi
  401efb:	bf 00 00 00 00       	mov    $0x0,%edi
  401f00:	e8 91 fc ff ff       	callq  401b96 <notify_server>
  401f05:	bf 01 00 00 00       	mov    $0x1,%edi
  401f0a:	e8 f1 ee ff ff       	callq  400e00 <exit@plt>

0000000000401f0f <illegalhandler>:
  401f0f:	48 83 ec 08          	sub    $0x8,%rsp
  401f13:	83 3d ee 35 20 00 00 	cmpl   $0x0,0x2035ee(%rip)        # 605508 <is_checker>
  401f1a:	74 14                	je     401f30 <illegalhandler+0x21>
  401f1c:	bf a0 33 40 00       	mov    $0x4033a0,%edi
  401f21:	e8 5a ed ff ff       	callq  400c80 <puts@plt>
  401f26:	b8 00 00 00 00       	mov    $0x0,%eax
  401f2b:	e8 df fb ff ff       	callq  401b0f <check_fail>
  401f30:	bf 20 35 40 00       	mov    $0x403520,%edi
  401f35:	e8 46 ed ff ff       	callq  400c80 <puts@plt>
  401f3a:	bf 77 33 40 00       	mov    $0x403377,%edi
  401f3f:	e8 3c ed ff ff       	callq  400c80 <puts@plt>
  401f44:	be 00 00 00 00       	mov    $0x0,%esi
  401f49:	bf 00 00 00 00       	mov    $0x0,%edi
  401f4e:	e8 43 fc ff ff       	callq  401b96 <notify_server>
  401f53:	bf 01 00 00 00       	mov    $0x1,%edi
  401f58:	e8 a3 ee ff ff       	callq  400e00 <exit@plt>

0000000000401f5d <sigalrmhandler>:
  401f5d:	48 83 ec 08          	sub    $0x8,%rsp
  401f61:	83 3d a0 35 20 00 00 	cmpl   $0x0,0x2035a0(%rip)        # 605508 <is_checker>
  401f68:	74 14                	je     401f7e <sigalrmhandler+0x21>
  401f6a:	bf b4 33 40 00       	mov    $0x4033b4,%edi
  401f6f:	e8 0c ed ff ff       	callq  400c80 <puts@plt>
  401f74:	b8 00 00 00 00       	mov    $0x0,%eax
  401f79:	e8 91 fb ff ff       	callq  401b0f <check_fail>
  401f7e:	ba 05 00 00 00       	mov    $0x5,%edx
  401f83:	be 50 35 40 00       	mov    $0x403550,%esi
  401f88:	bf 01 00 00 00       	mov    $0x1,%edi
  401f8d:	b8 00 00 00 00       	mov    $0x0,%eax
  401f92:	e8 19 ee ff ff       	callq  400db0 <__printf_chk@plt>
  401f97:	be 00 00 00 00       	mov    $0x0,%esi
  401f9c:	bf 00 00 00 00       	mov    $0x0,%edi
  401fa1:	e8 f0 fb ff ff       	callq  401b96 <notify_server>
  401fa6:	bf 01 00 00 00       	mov    $0x1,%edi
  401fab:	e8 50 ee ff ff       	callq  400e00 <exit@plt>

0000000000401fb0 <launch>:
  401fb0:	55                   	push   %rbp
  401fb1:	48 89 e5             	mov    %rsp,%rbp
  401fb4:	48 83 ec 10          	sub    $0x10,%rsp
  401fb8:	48 89 fa             	mov    %rdi,%rdx
  401fbb:	64 48 8b 04 25 28 00 	mov    %fs:0x28,%rax
  401fc2:	00 00 
  401fc4:	48 89 45 f8          	mov    %rax,-0x8(%rbp)
  401fc8:	31 c0                	xor    %eax,%eax
  401fca:	48 8d 47 1e          	lea    0x1e(%rdi),%rax
  401fce:	48 83 e0 f0          	and    $0xfffffffffffffff0,%rax
  401fd2:	48 29 c4             	sub    %rax,%rsp
  401fd5:	48 8d 7c 24 0f       	lea    0xf(%rsp),%rdi
  401fda:	48 83 e7 f0          	and    $0xfffffffffffffff0,%rdi
  401fde:	be f4 00 00 00       	mov    $0xf4,%esi
  401fe3:	e8 d8 ec ff ff       	callq  400cc0 <memset@plt>
  401fe8:	48 8b 05 b1 34 20 00 	mov    0x2034b1(%rip),%rax        # 6054a0 <stdin@@GLIBC_2.2.5>
  401fef:	48 39 05 fa 34 20 00 	cmp    %rax,0x2034fa(%rip)        # 6054f0 <infile>
  401ff6:	75 14                	jne    40200c <launch+0x5c>
  401ff8:	be bc 33 40 00       	mov    $0x4033bc,%esi
  401ffd:	bf 01 00 00 00       	mov    $0x1,%edi
  402002:	b8 00 00 00 00       	mov    $0x0,%eax
  402007:	e8 a4 ed ff ff       	callq  400db0 <__printf_chk@plt>
  40200c:	c7 05 e6 34 20 00 00 	movl   $0x0,0x2034e6(%rip)        # 6054fc <vlevel>
  402013:	00 00 00 
  402016:	b8 00 00 00 00       	mov    $0x0,%eax
  40201b:	e8 36 f9 ff ff       	callq  401956 <test>
  402020:	83 3d e1 34 20 00 00 	cmpl   $0x0,0x2034e1(%rip)        # 605508 <is_checker>
  402027:	74 14                	je     40203d <launch+0x8d>
  402029:	bf c9 33 40 00       	mov    $0x4033c9,%edi
  40202e:	e8 4d ec ff ff       	callq  400c80 <puts@plt>
  402033:	b8 00 00 00 00       	mov    $0x0,%eax
  402038:	e8 d2 fa ff ff       	callq  401b0f <check_fail>
  40203d:	bf d4 33 40 00       	mov    $0x4033d4,%edi
  402042:	e8 39 ec ff ff       	callq  400c80 <puts@plt>
  402047:	48 8b 45 f8          	mov    -0x8(%rbp),%rax
  40204b:	64 48 33 04 25 28 00 	xor    %fs:0x28,%rax
  402052:	00 00 
  402054:	74 05                	je     40205b <launch+0xab>
  402056:	e8 45 ec ff ff       	callq  400ca0 <__stack_chk_fail@plt>
  40205b:	c9                   	leaveq 
  40205c:	c3                   	retq   

000000000040205d <stable_launch>:
  40205d:	53                   	push   %rbx
  40205e:	48 89 3d 83 34 20 00 	mov    %rdi,0x203483(%rip)        # 6054e8 <global_offset>
  402065:	41 b9 00 00 00 00    	mov    $0x0,%r9d
  40206b:	41 b8 00 00 00 00    	mov    $0x0,%r8d
  402071:	b9 32 01 00 00       	mov    $0x132,%ecx
  402076:	ba 07 00 00 00       	mov    $0x7,%edx
  40207b:	be 00 00 10 00       	mov    $0x100000,%esi
  402080:	bf 00 60 58 55       	mov    $0x55586000,%edi
  402085:	e8 26 ec ff ff       	callq  400cb0 <mmap@plt>
  40208a:	48 89 c3             	mov    %rax,%rbx
  40208d:	48 3d 00 60 58 55    	cmp    $0x55586000,%rax
  402093:	74 37                	je     4020cc <stable_launch+0x6f>
  402095:	be 00 00 10 00       	mov    $0x100000,%esi
  40209a:	48 89 c7             	mov    %rax,%rdi
  40209d:	e8 fe ec ff ff       	callq  400da0 <munmap@plt>
  4020a2:	b9 00 60 58 55       	mov    $0x55586000,%ecx
  4020a7:	ba 88 35 40 00       	mov    $0x403588,%edx
  4020ac:	be 01 00 00 00       	mov    $0x1,%esi
  4020b1:	48 8b 3d 08 34 20 00 	mov    0x203408(%rip),%rdi        # 6054c0 <stderr@@GLIBC_2.2.5>
  4020b8:	b8 00 00 00 00       	mov    $0x0,%eax
  4020bd:	e8 5e ed ff ff       	callq  400e20 <__fprintf_chk@plt>
  4020c2:	bf 01 00 00 00       	mov    $0x1,%edi
  4020c7:	e8 34 ed ff ff       	callq  400e00 <exit@plt>
  4020cc:	48 8d 90 f8 ff 0f 00 	lea    0xffff8(%rax),%rdx
  4020d3:	48 89 15 56 40 20 00 	mov    %rdx,0x204056(%rip)        # 606130 <stack_top>
  4020da:	48 89 e0             	mov    %rsp,%rax
  4020dd:	48 89 d4             	mov    %rdx,%rsp
  4020e0:	48 89 c2             	mov    %rax,%rdx
  4020e3:	48 89 15 f6 33 20 00 	mov    %rdx,0x2033f6(%rip)        # 6054e0 <global_save_stack>
  4020ea:	48 8b 3d f7 33 20 00 	mov    0x2033f7(%rip),%rdi        # 6054e8 <global_offset>
  4020f1:	e8 ba fe ff ff       	callq  401fb0 <launch>
  4020f6:	48 8b 05 e3 33 20 00 	mov    0x2033e3(%rip),%rax        # 6054e0 <global_save_stack>
  4020fd:	48 89 c4             	mov    %rax,%rsp
  402100:	be 00 00 10 00       	mov    $0x100000,%esi
  402105:	48 89 df             	mov    %rbx,%rdi
  402108:	e8 93 ec ff ff       	callq  400da0 <munmap@plt>
  40210d:	5b                   	pop    %rbx
  40210e:	c3                   	retq   

000000000040210f <rio_readinitb>:
  40210f:	89 37                	mov    %esi,(%rdi)
  402111:	c7 47 04 00 00 00 00 	movl   $0x0,0x4(%rdi)
  402118:	48 8d 47 10          	lea    0x10(%rdi),%rax
  40211c:	48 89 47 08          	mov    %rax,0x8(%rdi)
  402120:	c3                   	retq   

0000000000402121 <sigalrm_handler>:
  402121:	48 83 ec 08          	sub    $0x8,%rsp
  402125:	b9 00 00 00 00       	mov    $0x0,%ecx
  40212a:	ba c0 35 40 00       	mov    $0x4035c0,%edx
  40212f:	be 01 00 00 00       	mov    $0x1,%esi
  402134:	48 8b 3d 85 33 20 00 	mov    0x203385(%rip),%rdi        # 6054c0 <stderr@@GLIBC_2.2.5>
  40213b:	b8 00 00 00 00       	mov    $0x0,%eax
  402140:	e8 db ec ff ff       	callq  400e20 <__fprintf_chk@plt>
  402145:	bf 01 00 00 00       	mov    $0x1,%edi
  40214a:	e8 b1 ec ff ff       	callq  400e00 <exit@plt>

000000000040214f <rio_writen>:
  40214f:	41 55                	push   %r13
  402151:	41 54                	push   %r12
  402153:	55                   	push   %rbp
  402154:	53                   	push   %rbx
  402155:	48 83 ec 08          	sub    $0x8,%rsp
  402159:	41 89 fc             	mov    %edi,%r12d
  40215c:	48 89 f5             	mov    %rsi,%rbp
  40215f:	49 89 d5             	mov    %rdx,%r13
  402162:	48 89 d3             	mov    %rdx,%rbx
  402165:	eb 28                	jmp    40218f <rio_writen+0x40>
  402167:	48 89 da             	mov    %rbx,%rdx
  40216a:	48 89 ee             	mov    %rbp,%rsi
  40216d:	44 89 e7             	mov    %r12d,%edi
  402170:	e8 1b eb ff ff       	callq  400c90 <write@plt>
  402175:	48 85 c0             	test   %rax,%rax
  402178:	7f 0f                	jg     402189 <rio_writen+0x3a>
  40217a:	e8 c1 ea ff ff       	callq  400c40 <__errno_location@plt>
  40217f:	83 38 04             	cmpl   $0x4,(%rax)
  402182:	75 15                	jne    402199 <rio_writen+0x4a>
  402184:	b8 00 00 00 00       	mov    $0x0,%eax
  402189:	48 29 c3             	sub    %rax,%rbx
  40218c:	48 01 c5             	add    %rax,%rbp
  40218f:	48 85 db             	test   %rbx,%rbx
  402192:	75 d3                	jne    402167 <rio_writen+0x18>
  402194:	4c 89 e8             	mov    %r13,%rax
  402197:	eb 07                	jmp    4021a0 <rio_writen+0x51>
  402199:	48 c7 c0 ff ff ff ff 	mov    $0xffffffffffffffff,%rax
  4021a0:	48 83 c4 08          	add    $0x8,%rsp
  4021a4:	5b                   	pop    %rbx
  4021a5:	5d                   	pop    %rbp
  4021a6:	41 5c                	pop    %r12
  4021a8:	41 5d                	pop    %r13
  4021aa:	c3                   	retq   

00000000004021ab <rio_read>:
  4021ab:	41 55                	push   %r13
  4021ad:	41 54                	push   %r12
  4021af:	55                   	push   %rbp
  4021b0:	53                   	push   %rbx
  4021b1:	48 83 ec 08          	sub    $0x8,%rsp
  4021b5:	48 89 fb             	mov    %rdi,%rbx
  4021b8:	49 89 f5             	mov    %rsi,%r13
  4021bb:	49 89 d4             	mov    %rdx,%r12
  4021be:	eb 2e                	jmp    4021ee <rio_read+0x43>
  4021c0:	48 8d 6b 10          	lea    0x10(%rbx),%rbp
  4021c4:	8b 3b                	mov    (%rbx),%edi
  4021c6:	ba 00 20 00 00       	mov    $0x2000,%edx
  4021cb:	48 89 ee             	mov    %rbp,%rsi
  4021ce:	e8 1d eb ff ff       	callq  400cf0 <read@plt>
  4021d3:	89 43 04             	mov    %eax,0x4(%rbx)
  4021d6:	85 c0                	test   %eax,%eax
  4021d8:	79 0c                	jns    4021e6 <rio_read+0x3b>
  4021da:	e8 61 ea ff ff       	callq  400c40 <__errno_location@plt>
  4021df:	83 38 04             	cmpl   $0x4,(%rax)
  4021e2:	74 0a                	je     4021ee <rio_read+0x43>
  4021e4:	eb 37                	jmp    40221d <rio_read+0x72>
  4021e6:	85 c0                	test   %eax,%eax
  4021e8:	74 3c                	je     402226 <rio_read+0x7b>
  4021ea:	48 89 6b 08          	mov    %rbp,0x8(%rbx)
  4021ee:	8b 6b 04             	mov    0x4(%rbx),%ebp
  4021f1:	85 ed                	test   %ebp,%ebp
  4021f3:	7e cb                	jle    4021c0 <rio_read+0x15>
  4021f5:	89 e8                	mov    %ebp,%eax
  4021f7:	49 39 c4             	cmp    %rax,%r12
  4021fa:	77 03                	ja     4021ff <rio_read+0x54>
  4021fc:	44 89 e5             	mov    %r12d,%ebp
  4021ff:	4c 63 e5             	movslq %ebp,%r12
  402202:	48 8b 73 08          	mov    0x8(%rbx),%rsi
  402206:	4c 89 e2             	mov    %r12,%rdx
  402209:	4c 89 ef             	mov    %r13,%rdi
  40220c:	e8 3f eb ff ff       	callq  400d50 <memcpy@plt>
  402211:	4c 01 63 08          	add    %r12,0x8(%rbx)
  402215:	29 6b 04             	sub    %ebp,0x4(%rbx)
  402218:	4c 89 e0             	mov    %r12,%rax
  40221b:	eb 0e                	jmp    40222b <rio_read+0x80>
  40221d:	48 c7 c0 ff ff ff ff 	mov    $0xffffffffffffffff,%rax
  402224:	eb 05                	jmp    40222b <rio_read+0x80>
  402226:	b8 00 00 00 00       	mov    $0x0,%eax
  40222b:	48 83 c4 08          	add    $0x8,%rsp
  40222f:	5b                   	pop    %rbx
  402230:	5d                   	pop    %rbp
  402231:	41 5c                	pop    %r12
  402233:	41 5d                	pop    %r13
  402235:	c3                   	retq   

0000000000402236 <rio_readlineb>:
  402236:	41 55                	push   %r13
  402238:	41 54                	push   %r12
  40223a:	55                   	push   %rbp
  40223b:	53                   	push   %rbx
  40223c:	48 83 ec 18          	sub    $0x18,%rsp
  402240:	49 89 fd             	mov    %rdi,%r13
  402243:	48 89 f5             	mov    %rsi,%rbp
  402246:	49 89 d4             	mov    %rdx,%r12
  402249:	64 48 8b 04 25 28 00 	mov    %fs:0x28,%rax
  402250:	00 00 
  402252:	48 89 44 24 08       	mov    %rax,0x8(%rsp)
  402257:	31 c0                	xor    %eax,%eax
  402259:	bb 01 00 00 00       	mov    $0x1,%ebx
  40225e:	eb 3f                	jmp    40229f <rio_readlineb+0x69>
  402260:	ba 01 00 00 00       	mov    $0x1,%edx
  402265:	48 8d 74 24 07       	lea    0x7(%rsp),%rsi
  40226a:	4c 89 ef             	mov    %r13,%rdi
  40226d:	e8 39 ff ff ff       	callq  4021ab <rio_read>
  402272:	83 f8 01             	cmp    $0x1,%eax
  402275:	75 15                	jne    40228c <rio_readlineb+0x56>
  402277:	48 8d 45 01          	lea    0x1(%rbp),%rax
  40227b:	0f b6 54 24 07       	movzbl 0x7(%rsp),%edx
  402280:	88 55 00             	mov    %dl,0x0(%rbp)
  402283:	80 7c 24 07 0a       	cmpb   $0xa,0x7(%rsp)
  402288:	75 0e                	jne    402298 <rio_readlineb+0x62>
  40228a:	eb 1a                	jmp    4022a6 <rio_readlineb+0x70>
  40228c:	85 c0                	test   %eax,%eax
  40228e:	75 22                	jne    4022b2 <rio_readlineb+0x7c>
  402290:	48 83 fb 01          	cmp    $0x1,%rbx
  402294:	75 13                	jne    4022a9 <rio_readlineb+0x73>
  402296:	eb 23                	jmp    4022bb <rio_readlineb+0x85>
  402298:	48 83 c3 01          	add    $0x1,%rbx
  40229c:	48 89 c5             	mov    %rax,%rbp
  40229f:	4c 39 e3             	cmp    %r12,%rbx
  4022a2:	72 bc                	jb     402260 <rio_readlineb+0x2a>
  4022a4:	eb 03                	jmp    4022a9 <rio_readlineb+0x73>
  4022a6:	48 89 c5             	mov    %rax,%rbp
  4022a9:	c6 45 00 00          	movb   $0x0,0x0(%rbp)
  4022ad:	48 89 d8             	mov    %rbx,%rax
  4022b0:	eb 0e                	jmp    4022c0 <rio_readlineb+0x8a>
  4022b2:	48 c7 c0 ff ff ff ff 	mov    $0xffffffffffffffff,%rax
  4022b9:	eb 05                	jmp    4022c0 <rio_readlineb+0x8a>
  4022bb:	b8 00 00 00 00       	mov    $0x0,%eax
  4022c0:	48 8b 4c 24 08       	mov    0x8(%rsp),%rcx
  4022c5:	64 48 33 0c 25 28 00 	xor    %fs:0x28,%rcx
  4022cc:	00 00 
  4022ce:	74 05                	je     4022d5 <rio_readlineb+0x9f>
  4022d0:	e8 cb e9 ff ff       	callq  400ca0 <__stack_chk_fail@plt>
  4022d5:	48 83 c4 18          	add    $0x18,%rsp
  4022d9:	5b                   	pop    %rbx
  4022da:	5d                   	pop    %rbp
  4022db:	41 5c                	pop    %r12
  4022dd:	41 5d                	pop    %r13
  4022df:	c3                   	retq   

00000000004022e0 <urlencode>:
  4022e0:	41 54                	push   %r12
  4022e2:	55                   	push   %rbp
  4022e3:	53                   	push   %rbx
  4022e4:	48 83 ec 10          	sub    $0x10,%rsp
  4022e8:	48 89 fb             	mov    %rdi,%rbx
  4022eb:	48 89 f5             	mov    %rsi,%rbp
  4022ee:	64 48 8b 04 25 28 00 	mov    %fs:0x28,%rax
  4022f5:	00 00 
  4022f7:	48 89 44 24 08       	mov    %rax,0x8(%rsp)
  4022fc:	31 c0                	xor    %eax,%eax
  4022fe:	48 c7 c1 ff ff ff ff 	mov    $0xffffffffffffffff,%rcx
  402305:	f2 ae                	repnz scas %es:(%rdi),%al
  402307:	48 f7 d1             	not    %rcx
  40230a:	8d 41 ff             	lea    -0x1(%rcx),%eax
  40230d:	e9 aa 00 00 00       	jmpq   4023bc <urlencode+0xdc>
  402312:	44 0f b6 03          	movzbl (%rbx),%r8d
  402316:	41 80 f8 2a          	cmp    $0x2a,%r8b
  40231a:	0f 94 c2             	sete   %dl
  40231d:	41 80 f8 2d          	cmp    $0x2d,%r8b
  402321:	0f 94 c0             	sete   %al
  402324:	08 c2                	or     %al,%dl
  402326:	75 24                	jne    40234c <urlencode+0x6c>
  402328:	41 80 f8 2e          	cmp    $0x2e,%r8b
  40232c:	74 1e                	je     40234c <urlencode+0x6c>
  40232e:	41 80 f8 5f          	cmp    $0x5f,%r8b
  402332:	74 18                	je     40234c <urlencode+0x6c>
  402334:	41 8d 40 d0          	lea    -0x30(%r8),%eax
  402338:	3c 09                	cmp    $0x9,%al
  40233a:	76 10                	jbe    40234c <urlencode+0x6c>
  40233c:	41 8d 40 bf          	lea    -0x41(%r8),%eax
  402340:	3c 19                	cmp    $0x19,%al
  402342:	76 08                	jbe    40234c <urlencode+0x6c>
  402344:	41 8d 40 9f          	lea    -0x61(%r8),%eax
  402348:	3c 19                	cmp    $0x19,%al
  40234a:	77 0a                	ja     402356 <urlencode+0x76>
  40234c:	44 88 45 00          	mov    %r8b,0x0(%rbp)
  402350:	48 8d 6d 01          	lea    0x1(%rbp),%rbp
  402354:	eb 5f                	jmp    4023b5 <urlencode+0xd5>
  402356:	41 80 f8 20          	cmp    $0x20,%r8b
  40235a:	75 0a                	jne    402366 <urlencode+0x86>
  40235c:	c6 45 00 2b          	movb   $0x2b,0x0(%rbp)
  402360:	48 8d 6d 01          	lea    0x1(%rbp),%rbp
  402364:	eb 4f                	jmp    4023b5 <urlencode+0xd5>
  402366:	41 8d 40 e0          	lea    -0x20(%r8),%eax
  40236a:	3c 5f                	cmp    $0x5f,%al
  40236c:	0f 96 c2             	setbe  %dl
  40236f:	41 80 f8 09          	cmp    $0x9,%r8b
  402373:	0f 94 c0             	sete   %al
  402376:	08 c2                	or     %al,%dl
  402378:	74 50                	je     4023ca <urlencode+0xea>
  40237a:	45 0f b6 c0          	movzbl %r8b,%r8d
  40237e:	b9 58 36 40 00       	mov    $0x403658,%ecx
  402383:	ba 08 00 00 00       	mov    $0x8,%edx
  402388:	be 01 00 00 00       	mov    $0x1,%esi
  40238d:	48 89 e7             	mov    %rsp,%rdi
  402390:	b8 00 00 00 00       	mov    $0x0,%eax
  402395:	e8 96 ea ff ff       	callq  400e30 <__sprintf_chk@plt>
  40239a:	0f b6 04 24          	movzbl (%rsp),%eax
  40239e:	88 45 00             	mov    %al,0x0(%rbp)
  4023a1:	0f b6 44 24 01       	movzbl 0x1(%rsp),%eax
  4023a6:	88 45 01             	mov    %al,0x1(%rbp)
  4023a9:	0f b6 44 24 02       	movzbl 0x2(%rsp),%eax
  4023ae:	88 45 02             	mov    %al,0x2(%rbp)
  4023b1:	48 8d 6d 03          	lea    0x3(%rbp),%rbp
  4023b5:	48 83 c3 01          	add    $0x1,%rbx
  4023b9:	44 89 e0             	mov    %r12d,%eax
  4023bc:	44 8d 60 ff          	lea    -0x1(%rax),%r12d
  4023c0:	85 c0                	test   %eax,%eax
  4023c2:	0f 85 4a ff ff ff    	jne    402312 <urlencode+0x32>
  4023c8:	eb 05                	jmp    4023cf <urlencode+0xef>
  4023ca:	b8 ff ff ff ff       	mov    $0xffffffff,%eax
  4023cf:	48 8b 74 24 08       	mov    0x8(%rsp),%rsi
  4023d4:	64 48 33 34 25 28 00 	xor    %fs:0x28,%rsi
  4023db:	00 00 
  4023dd:	74 05                	je     4023e4 <urlencode+0x104>
  4023df:	e8 bc e8 ff ff       	callq  400ca0 <__stack_chk_fail@plt>
  4023e4:	48 83 c4 10          	add    $0x10,%rsp
  4023e8:	5b                   	pop    %rbx
  4023e9:	5d                   	pop    %rbp
  4023ea:	41 5c                	pop    %r12
  4023ec:	c3                   	retq   

00000000004023ed <submitr>:
  4023ed:	41 57                	push   %r15
  4023ef:	41 56                	push   %r14
  4023f1:	41 55                	push   %r13
  4023f3:	41 54                	push   %r12
  4023f5:	55                   	push   %rbp
  4023f6:	53                   	push   %rbx
  4023f7:	48 81 ec 58 a0 00 00 	sub    $0xa058,%rsp
  4023fe:	49 89 fc             	mov    %rdi,%r12
  402401:	89 74 24 04          	mov    %esi,0x4(%rsp)
  402405:	49 89 d7             	mov    %rdx,%r15
  402408:	49 89 ce             	mov    %rcx,%r14
  40240b:	4c 89 44 24 08       	mov    %r8,0x8(%rsp)
  402410:	4d 89 cd             	mov    %r9,%r13
  402413:	48 8b 9c 24 90 a0 00 	mov    0xa090(%rsp),%rbx
  40241a:	00 
  40241b:	64 48 8b 04 25 28 00 	mov    %fs:0x28,%rax
  402422:	00 00 
  402424:	48 89 84 24 48 a0 00 	mov    %rax,0xa048(%rsp)
  40242b:	00 
  40242c:	31 c0                	xor    %eax,%eax
  40242e:	c7 44 24 1c 00 00 00 	movl   $0x0,0x1c(%rsp)
  402435:	00 
  402436:	ba 00 00 00 00       	mov    $0x0,%edx
  40243b:	be 01 00 00 00       	mov    $0x1,%esi
  402440:	bf 02 00 00 00       	mov    $0x2,%edi
  402445:	e8 f6 e9 ff ff       	callq  400e40 <socket@plt>
  40244a:	85 c0                	test   %eax,%eax
  40244c:	79 4e                	jns    40249c <submitr+0xaf>
  40244e:	48 b8 45 72 72 6f 72 	movabs $0x43203a726f727245,%rax
  402455:	3a 20 43 
  402458:	48 89 03             	mov    %rax,(%rbx)
  40245b:	48 b8 6c 69 65 6e 74 	movabs $0x6e7520746e65696c,%rax
  402462:	20 75 6e 
  402465:	48 89 43 08          	mov    %rax,0x8(%rbx)
  402469:	48 b8 61 62 6c 65 20 	movabs $0x206f7420656c6261,%rax
  402470:	74 6f 20 
  402473:	48 89 43 10          	mov    %rax,0x10(%rbx)
  402477:	48 b8 63 72 65 61 74 	movabs $0x7320657461657263,%rax
  40247e:	65 20 73 
  402481:	48 89 43 18          	mov    %rax,0x18(%rbx)
  402485:	c7 43 20 6f 63 6b 65 	movl   $0x656b636f,0x20(%rbx)
  40248c:	66 c7 43 24 74 00    	movw   $0x74,0x24(%rbx)
  402492:	b8 ff ff ff ff       	mov    $0xffffffff,%eax
  402497:	e9 97 06 00 00       	jmpq   402b33 <submitr+0x746>
  40249c:	89 c5                	mov    %eax,%ebp
  40249e:	4c 89 e7             	mov    %r12,%rdi
  4024a1:	e8 7a e8 ff ff       	callq  400d20 <gethostbyname@plt>
  4024a6:	48 85 c0             	test   %rax,%rax
  4024a9:	75 67                	jne    402512 <submitr+0x125>
  4024ab:	48 b8 45 72 72 6f 72 	movabs $0x44203a726f727245,%rax
  4024b2:	3a 20 44 
  4024b5:	48 89 03             	mov    %rax,(%rbx)
  4024b8:	48 b8 4e 53 20 69 73 	movabs $0x6e7520736920534e,%rax
  4024bf:	20 75 6e 
  4024c2:	48 89 43 08          	mov    %rax,0x8(%rbx)
  4024c6:	48 b8 61 62 6c 65 20 	movabs $0x206f7420656c6261,%rax
  4024cd:	74 6f 20 
  4024d0:	48 89 43 10          	mov    %rax,0x10(%rbx)
  4024d4:	48 b8 72 65 73 6f 6c 	movabs $0x2065766c6f736572,%rax
  4024db:	76 65 20 
  4024de:	48 89 43 18          	mov    %rax,0x18(%rbx)
  4024e2:	48 b8 73 65 72 76 65 	movabs $0x6120726576726573,%rax
  4024e9:	72 20 61 
  4024ec:	48 89 43 20          	mov    %rax,0x20(%rbx)
  4024f0:	c7 43 28 64 64 72 65 	movl   $0x65726464,0x28(%rbx)
  4024f7:	66 c7 43 2c 73 73    	movw   $0x7373,0x2c(%rbx)
  4024fd:	c6 43 2e 00          	movb   $0x0,0x2e(%rbx)
  402501:	89 ef                	mov    %ebp,%edi
  402503:	e8 d8 e7 ff ff       	callq  400ce0 <close@plt>
  402508:	b8 ff ff ff ff       	mov    $0xffffffff,%eax
  40250d:	e9 21 06 00 00       	jmpq   402b33 <submitr+0x746>
  402512:	48 c7 44 24 20 00 00 	movq   $0x0,0x20(%rsp)
  402519:	00 00 
  40251b:	48 c7 44 24 28 00 00 	movq   $0x0,0x28(%rsp)
  402522:	00 00 
  402524:	66 c7 44 24 20 02 00 	movw   $0x2,0x20(%rsp)
  40252b:	48 63 50 14          	movslq 0x14(%rax),%rdx
  40252f:	48 8b 40 18          	mov    0x18(%rax),%rax
  402533:	48 8b 30             	mov    (%rax),%rsi
  402536:	48 8d 7c 24 24       	lea    0x24(%rsp),%rdi
  40253b:	b9 0c 00 00 00       	mov    $0xc,%ecx
  402540:	e8 eb e7 ff ff       	callq  400d30 <__memmove_chk@plt>
  402545:	0f b7 44 24 04       	movzwl 0x4(%rsp),%eax
  40254a:	66 c1 c8 08          	ror    $0x8,%ax
  40254e:	66 89 44 24 22       	mov    %ax,0x22(%rsp)
  402553:	ba 10 00 00 00       	mov    $0x10,%edx
  402558:	48 8d 74 24 20       	lea    0x20(%rsp),%rsi
  40255d:	89 ef                	mov    %ebp,%edi
  40255f:	e8 ac e8 ff ff       	callq  400e10 <connect@plt>
  402564:	85 c0                	test   %eax,%eax
  402566:	79 59                	jns    4025c1 <submitr+0x1d4>
  402568:	48 b8 45 72 72 6f 72 	movabs $0x55203a726f727245,%rax
  40256f:	3a 20 55 
  402572:	48 89 03             	mov    %rax,(%rbx)
  402575:	48 b8 6e 61 62 6c 65 	movabs $0x6f7420656c62616e,%rax
  40257c:	20 74 6f 
  40257f:	48 89 43 08          	mov    %rax,0x8(%rbx)
  402583:	48 b8 20 63 6f 6e 6e 	movabs $0x7463656e6e6f6320,%rax
  40258a:	65 63 74 
  40258d:	48 89 43 10          	mov    %rax,0x10(%rbx)
  402591:	48 b8 20 74 6f 20 74 	movabs $0x20656874206f7420,%rax
  402598:	68 65 20 
  40259b:	48 89 43 18          	mov    %rax,0x18(%rbx)
  40259f:	c7 43 20 73 65 72 76 	movl   $0x76726573,0x20(%rbx)
  4025a6:	66 c7 43 24 65 72    	movw   $0x7265,0x24(%rbx)
  4025ac:	c6 43 26 00          	movb   $0x0,0x26(%rbx)
  4025b0:	89 ef                	mov    %ebp,%edi
  4025b2:	e8 29 e7 ff ff       	callq  400ce0 <close@plt>
  4025b7:	b8 ff ff ff ff       	mov    $0xffffffff,%eax
  4025bc:	e9 72 05 00 00       	jmpq   402b33 <submitr+0x746>
  4025c1:	48 c7 c6 ff ff ff ff 	mov    $0xffffffffffffffff,%rsi
  4025c8:	b8 00 00 00 00       	mov    $0x0,%eax
  4025cd:	48 89 f1             	mov    %rsi,%rcx
  4025d0:	4c 89 ef             	mov    %r13,%rdi
  4025d3:	f2 ae                	repnz scas %es:(%rdi),%al
  4025d5:	48 f7 d1             	not    %rcx
  4025d8:	48 89 ca             	mov    %rcx,%rdx
  4025db:	48 89 f1             	mov    %rsi,%rcx
  4025de:	4c 89 ff             	mov    %r15,%rdi
  4025e1:	f2 ae                	repnz scas %es:(%rdi),%al
  4025e3:	48 f7 d1             	not    %rcx
  4025e6:	49 89 c8             	mov    %rcx,%r8
  4025e9:	48 89 f1             	mov    %rsi,%rcx
  4025ec:	4c 89 f7             	mov    %r14,%rdi
  4025ef:	f2 ae                	repnz scas %es:(%rdi),%al
  4025f1:	48 f7 d1             	not    %rcx
  4025f4:	4d 8d 44 08 fe       	lea    -0x2(%r8,%rcx,1),%r8
  4025f9:	48 89 f1             	mov    %rsi,%rcx
  4025fc:	48 8b 7c 24 08       	mov    0x8(%rsp),%rdi
  402601:	f2 ae                	repnz scas %es:(%rdi),%al
  402603:	48 89 c8             	mov    %rcx,%rax
  402606:	48 f7 d0             	not    %rax
  402609:	49 8d 4c 00 ff       	lea    -0x1(%r8,%rax,1),%rcx
  40260e:	48 8d 44 52 fd       	lea    -0x3(%rdx,%rdx,2),%rax
  402613:	48 8d 84 01 80 00 00 	lea    0x80(%rcx,%rax,1),%rax
  40261a:	00 
  40261b:	48 3d 00 20 00 00    	cmp    $0x2000,%rax
  402621:	76 72                	jbe    402695 <submitr+0x2a8>
  402623:	48 b8 45 72 72 6f 72 	movabs $0x52203a726f727245,%rax
  40262a:	3a 20 52 
  40262d:	48 89 03             	mov    %rax,(%rbx)
  402630:	48 b8 65 73 75 6c 74 	movabs $0x747320746c757365,%rax
  402637:	20 73 74 
  40263a:	48 89 43 08          	mov    %rax,0x8(%rbx)
  40263e:	48 b8 72 69 6e 67 20 	movabs $0x6f6f7420676e6972,%rax
  402645:	74 6f 6f 
  402648:	48 89 43 10          	mov    %rax,0x10(%rbx)
  40264c:	48 b8 20 6c 61 72 67 	movabs $0x202e656772616c20,%rax
  402653:	65 2e 20 
  402656:	48 89 43 18          	mov    %rax,0x18(%rbx)
  40265a:	48 b8 49 6e 63 72 65 	movabs $0x6573616572636e49,%rax
  402661:	61 73 65 
  402664:	48 89 43 20          	mov    %rax,0x20(%rbx)
  402668:	48 b8 20 53 55 42 4d 	movabs $0x5254494d42555320,%rax
  40266f:	49 54 52 
  402672:	48 89 43 28          	mov    %rax,0x28(%rbx)
  402676:	48 b8 5f 4d 41 58 42 	movabs $0x46554258414d5f,%rax
  40267d:	55 46 00 
  402680:	48 89 43 30          	mov    %rax,0x30(%rbx)
  402684:	89 ef                	mov    %ebp,%edi
  402686:	e8 55 e6 ff ff       	callq  400ce0 <close@plt>
  40268b:	b8 ff ff ff ff       	mov    $0xffffffff,%eax
  402690:	e9 9e 04 00 00       	jmpq   402b33 <submitr+0x746>
  402695:	48 8d b4 24 40 40 00 	lea    0x4040(%rsp),%rsi
  40269c:	00 
  40269d:	b9 00 04 00 00       	mov    $0x400,%ecx
  4026a2:	b8 00 00 00 00       	mov    $0x0,%eax
  4026a7:	48 89 f7             	mov    %rsi,%rdi
  4026aa:	f3 48 ab             	rep stos %rax,%es:(%rdi)
  4026ad:	4c 89 ef             	mov    %r13,%rdi
  4026b0:	e8 2b fc ff ff       	callq  4022e0 <urlencode>
  4026b5:	85 c0                	test   %eax,%eax
  4026b7:	0f 89 8a 00 00 00    	jns    402747 <submitr+0x35a>
  4026bd:	48 b8 45 72 72 6f 72 	movabs $0x52203a726f727245,%rax
  4026c4:	3a 20 52 
  4026c7:	48 89 03             	mov    %rax,(%rbx)
  4026ca:	48 b8 65 73 75 6c 74 	movabs $0x747320746c757365,%rax
  4026d1:	20 73 74 
  4026d4:	48 89 43 08          	mov    %rax,0x8(%rbx)
  4026d8:	48 b8 72 69 6e 67 20 	movabs $0x6e6f6320676e6972,%rax
  4026df:	63 6f 6e 
  4026e2:	48 89 43 10          	mov    %rax,0x10(%rbx)
  4026e6:	48 b8 74 61 69 6e 73 	movabs $0x6e6120736e696174,%rax
  4026ed:	20 61 6e 
  4026f0:	48 89 43 18          	mov    %rax,0x18(%rbx)
  4026f4:	48 b8 20 69 6c 6c 65 	movabs $0x6c6167656c6c6920,%rax
  4026fb:	67 61 6c 
  4026fe:	48 89 43 20          	mov    %rax,0x20(%rbx)
  402702:	48 b8 20 6f 72 20 75 	movabs $0x72706e7520726f20,%rax
  402709:	6e 70 72 
  40270c:	48 89 43 28          	mov    %rax,0x28(%rbx)
  402710:	48 b8 69 6e 74 61 62 	movabs $0x20656c6261746e69,%rax
  402717:	6c 65 20 
  40271a:	48 89 43 30          	mov    %rax,0x30(%rbx)
  40271e:	48 b8 63 68 61 72 61 	movabs $0x6574636172616863,%rax
  402725:	63 74 65 
  402728:	48 89 43 38          	mov    %rax,0x38(%rbx)
  40272c:	66 c7 43 40 72 2e    	movw   $0x2e72,0x40(%rbx)
  402732:	c6 43 42 00          	movb   $0x0,0x42(%rbx)
  402736:	89 ef                	mov    %ebp,%edi
  402738:	e8 a3 e5 ff ff       	callq  400ce0 <close@plt>
  40273d:	b8 ff ff ff ff       	mov    $0xffffffff,%eax
  402742:	e9 ec 03 00 00       	jmpq   402b33 <submitr+0x746>
  402747:	4c 8d ac 24 40 20 00 	lea    0x2040(%rsp),%r13
  40274e:	00 
  40274f:	41 54                	push   %r12
  402751:	48 8d 84 24 48 40 00 	lea    0x4048(%rsp),%rax
  402758:	00 
  402759:	50                   	push   %rax
  40275a:	4d 89 f9             	mov    %r15,%r9
  40275d:	4d 89 f0             	mov    %r14,%r8
  402760:	b9 e8 35 40 00       	mov    $0x4035e8,%ecx
  402765:	ba 00 20 00 00       	mov    $0x2000,%edx
  40276a:	be 01 00 00 00       	mov    $0x1,%esi
  40276f:	4c 89 ef             	mov    %r13,%rdi
  402772:	b8 00 00 00 00       	mov    $0x0,%eax
  402777:	e8 b4 e6 ff ff       	callq  400e30 <__sprintf_chk@plt>
  40277c:	b8 00 00 00 00       	mov    $0x0,%eax
  402781:	48 c7 c1 ff ff ff ff 	mov    $0xffffffffffffffff,%rcx
  402788:	4c 89 ef             	mov    %r13,%rdi
  40278b:	f2 ae                	repnz scas %es:(%rdi),%al
  40278d:	48 f7 d1             	not    %rcx
  402790:	48 8d 51 ff          	lea    -0x1(%rcx),%rdx
  402794:	4c 89 ee             	mov    %r13,%rsi
  402797:	89 ef                	mov    %ebp,%edi
  402799:	e8 b1 f9 ff ff       	callq  40214f <rio_writen>
  40279e:	48 83 c4 10          	add    $0x10,%rsp
  4027a2:	48 85 c0             	test   %rax,%rax
  4027a5:	79 6e                	jns    402815 <submitr+0x428>
  4027a7:	48 b8 45 72 72 6f 72 	movabs $0x43203a726f727245,%rax
  4027ae:	3a 20 43 
  4027b1:	48 89 03             	mov    %rax,(%rbx)
  4027b4:	48 b8 6c 69 65 6e 74 	movabs $0x6e7520746e65696c,%rax
  4027bb:	20 75 6e 
  4027be:	48 89 43 08          	mov    %rax,0x8(%rbx)
  4027c2:	48 b8 61 62 6c 65 20 	movabs $0x206f7420656c6261,%rax
  4027c9:	74 6f 20 
  4027cc:	48 89 43 10          	mov    %rax,0x10(%rbx)
  4027d0:	48 b8 77 72 69 74 65 	movabs $0x6f74206574697277,%rax
  4027d7:	20 74 6f 
  4027da:	48 89 43 18          	mov    %rax,0x18(%rbx)
  4027de:	48 b8 20 74 68 65 20 	movabs $0x7365722065687420,%rax
  4027e5:	72 65 73 
  4027e8:	48 89 43 20          	mov    %rax,0x20(%rbx)
  4027ec:	48 b8 75 6c 74 20 73 	movabs $0x7672657320746c75,%rax
  4027f3:	65 72 76 
  4027f6:	48 89 43 28          	mov    %rax,0x28(%rbx)
  4027fa:	66 c7 43 30 65 72    	movw   $0x7265,0x30(%rbx)
  402800:	c6 43 32 00          	movb   $0x0,0x32(%rbx)
  402804:	89 ef                	mov    %ebp,%edi
  402806:	e8 d5 e4 ff ff       	callq  400ce0 <close@plt>
  40280b:	b8 ff ff ff ff       	mov    $0xffffffff,%eax
  402810:	e9 1e 03 00 00       	jmpq   402b33 <submitr+0x746>
  402815:	89 ee                	mov    %ebp,%esi
  402817:	48 8d 7c 24 30       	lea    0x30(%rsp),%rdi
  40281c:	e8 ee f8 ff ff       	callq  40210f <rio_readinitb>
  402821:	ba 00 20 00 00       	mov    $0x2000,%edx
  402826:	48 8d b4 24 40 20 00 	lea    0x2040(%rsp),%rsi
  40282d:	00 
  40282e:	48 8d 7c 24 30       	lea    0x30(%rsp),%rdi
  402833:	e8 fe f9 ff ff       	callq  402236 <rio_readlineb>
  402838:	48 85 c0             	test   %rax,%rax
  40283b:	7f 7d                	jg     4028ba <submitr+0x4cd>
  40283d:	48 b8 45 72 72 6f 72 	movabs $0x43203a726f727245,%rax
  402844:	3a 20 43 
  402847:	48 89 03             	mov    %rax,(%rbx)
  40284a:	48 b8 6c 69 65 6e 74 	movabs $0x6e7520746e65696c,%rax
  402851:	20 75 6e 
  402854:	48 89 43 08          	mov    %rax,0x8(%rbx)
  402858:	48 b8 61 62 6c 65 20 	movabs $0x206f7420656c6261,%rax
  40285f:	74 6f 20 
  402862:	48 89 43 10          	mov    %rax,0x10(%rbx)
  402866:	48 b8 72 65 61 64 20 	movabs $0x7269662064616572,%rax
  40286d:	66 69 72 
  402870:	48 89 43 18          	mov    %rax,0x18(%rbx)
  402874:	48 b8 73 74 20 68 65 	movabs $0x6564616568207473,%rax
  40287b:	61 64 65 
  40287e:	48 89 43 20          	mov    %rax,0x20(%rbx)
  402882:	48 b8 72 20 66 72 6f 	movabs $0x72206d6f72662072,%rax
  402889:	6d 20 72 
  40288c:	48 89 43 28          	mov    %rax,0x28(%rbx)
  402890:	48 b8 65 73 75 6c 74 	movabs $0x657320746c757365,%rax
  402897:	20 73 65 
  40289a:	48 89 43 30          	mov    %rax,0x30(%rbx)
  40289e:	c7 43 38 72 76 65 72 	movl   $0x72657672,0x38(%rbx)
  4028a5:	c6 43 3c 00          	movb   $0x0,0x3c(%rbx)
  4028a9:	89 ef                	mov    %ebp,%edi
  4028ab:	e8 30 e4 ff ff       	callq  400ce0 <close@plt>
  4028b0:	b8 ff ff ff ff       	mov    $0xffffffff,%eax
  4028b5:	e9 79 02 00 00       	jmpq   402b33 <submitr+0x746>
  4028ba:	4c 8d 84 24 40 80 00 	lea    0x8040(%rsp),%r8
  4028c1:	00 
  4028c2:	48 8d 4c 24 1c       	lea    0x1c(%rsp),%rcx
  4028c7:	48 8d 94 24 40 60 00 	lea    0x6040(%rsp),%rdx
  4028ce:	00 
  4028cf:	be 5f 36 40 00       	mov    $0x40365f,%esi
  4028d4:	48 8d bc 24 40 20 00 	lea    0x2040(%rsp),%rdi
  4028db:	00 
  4028dc:	b8 00 00 00 00       	mov    $0x0,%eax
  4028e1:	e8 aa e4 ff ff       	callq  400d90 <__isoc99_sscanf@plt>
  4028e6:	e9 95 00 00 00       	jmpq   402980 <submitr+0x593>
  4028eb:	ba 00 20 00 00       	mov    $0x2000,%edx
  4028f0:	48 8d b4 24 40 20 00 	lea    0x2040(%rsp),%rsi
  4028f7:	00 
  4028f8:	48 8d 7c 24 30       	lea    0x30(%rsp),%rdi
  4028fd:	e8 34 f9 ff ff       	callq  402236 <rio_readlineb>
  402902:	48 85 c0             	test   %rax,%rax
  402905:	7f 79                	jg     402980 <submitr+0x593>
  402907:	48 b8 45 72 72 6f 72 	movabs $0x43203a726f727245,%rax
  40290e:	3a 20 43 
  402911:	48 89 03             	mov    %rax,(%rbx)
  402914:	48 b8 6c 69 65 6e 74 	movabs $0x6e7520746e65696c,%rax
  40291b:	20 75 6e 
  40291e:	48 89 43 08          	mov    %rax,0x8(%rbx)
  402922:	48 b8 61 62 6c 65 20 	movabs $0x206f7420656c6261,%rax
  402929:	74 6f 20 
  40292c:	48 89 43 10          	mov    %rax,0x10(%rbx)
  402930:	48 b8 72 65 61 64 20 	movabs $0x6165682064616572,%rax
  402937:	68 65 61 
  40293a:	48 89 43 18          	mov    %rax,0x18(%rbx)
  40293e:	48 b8 64 65 72 73 20 	movabs $0x6f72662073726564,%rax
  402945:	66 72 6f 
  402948:	48 89 43 20          	mov    %rax,0x20(%rbx)
  40294c:	48 b8 6d 20 74 68 65 	movabs $0x657220656874206d,%rax
  402953:	20 72 65 
  402956:	48 89 43 28          	mov    %rax,0x28(%rbx)
  40295a:	48 b8 73 75 6c 74 20 	movabs $0x72657320746c7573,%rax
  402961:	73 65 72 
  402964:	48 89 43 30          	mov    %rax,0x30(%rbx)
  402968:	c7 43 38 76 65 72 00 	movl   $0x726576,0x38(%rbx)
  40296f:	89 ef                	mov    %ebp,%edi
  402971:	e8 6a e3 ff ff       	callq  400ce0 <close@plt>
  402976:	b8 ff ff ff ff       	mov    $0xffffffff,%eax
  40297b:	e9 b3 01 00 00       	jmpq   402b33 <submitr+0x746>
  402980:	0f b6 94 24 40 20 00 	movzbl 0x2040(%rsp),%edx
  402987:	00 
  402988:	b8 0d 00 00 00       	mov    $0xd,%eax
  40298d:	29 d0                	sub    %edx,%eax
  40298f:	75 1b                	jne    4029ac <submitr+0x5bf>
  402991:	0f b6 94 24 41 20 00 	movzbl 0x2041(%rsp),%edx
  402998:	00 
  402999:	b8 0a 00 00 00       	mov    $0xa,%eax
  40299e:	29 d0                	sub    %edx,%eax
  4029a0:	75 0a                	jne    4029ac <submitr+0x5bf>
  4029a2:	0f b6 84 24 42 20 00 	movzbl 0x2042(%rsp),%eax
  4029a9:	00 
  4029aa:	f7 d8                	neg    %eax
  4029ac:	85 c0                	test   %eax,%eax
  4029ae:	0f 85 37 ff ff ff    	jne    4028eb <submitr+0x4fe>
  4029b4:	ba 00 20 00 00       	mov    $0x2000,%edx
  4029b9:	48 8d b4 24 40 20 00 	lea    0x2040(%rsp),%rsi
  4029c0:	00 
  4029c1:	48 8d 7c 24 30       	lea    0x30(%rsp),%rdi
  4029c6:	e8 6b f8 ff ff       	callq  402236 <rio_readlineb>
  4029cb:	48 85 c0             	test   %rax,%rax
  4029ce:	0f 8f 83 00 00 00    	jg     402a57 <submitr+0x66a>
  4029d4:	48 b8 45 72 72 6f 72 	movabs $0x43203a726f727245,%rax
  4029db:	3a 20 43 
  4029de:	48 89 03             	mov    %rax,(%rbx)
  4029e1:	48 b8 6c 69 65 6e 74 	movabs $0x6e7520746e65696c,%rax
  4029e8:	20 75 6e 
  4029eb:	48 89 43 08          	mov    %rax,0x8(%rbx)
  4029ef:	48 b8 61 62 6c 65 20 	movabs $0x206f7420656c6261,%rax
  4029f6:	74 6f 20 
  4029f9:	48 89 43 10          	mov    %rax,0x10(%rbx)
  4029fd:	48 b8 72 65 61 64 20 	movabs $0x6174732064616572,%rax
  402a04:	73 74 61 
  402a07:	48 89 43 18          	mov    %rax,0x18(%rbx)
  402a0b:	48 b8 74 75 73 20 6d 	movabs $0x7373656d20737574,%rax
  402a12:	65 73 73 
  402a15:	48 89 43 20          	mov    %rax,0x20(%rbx)
  402a19:	48 b8 61 67 65 20 66 	movabs $0x6d6f726620656761,%rax
  402a20:	72 6f 6d 
  402a23:	48 89 43 28          	mov    %rax,0x28(%rbx)
  402a27:	48 b8 20 72 65 73 75 	movabs $0x20746c7573657220,%rax
  402a2e:	6c 74 20 
  402a31:	48 89 43 30          	mov    %rax,0x30(%rbx)
  402a35:	c7 43 38 73 65 72 76 	movl   $0x76726573,0x38(%rbx)
  402a3c:	66 c7 43 3c 65 72    	movw   $0x7265,0x3c(%rbx)
  402a42:	c6 43 3e 00          	movb   $0x0,0x3e(%rbx)
  402a46:	89 ef                	mov    %ebp,%edi
  402a48:	e8 93 e2 ff ff       	callq  400ce0 <close@plt>
  402a4d:	b8 ff ff ff ff       	mov    $0xffffffff,%eax
  402a52:	e9 dc 00 00 00       	jmpq   402b33 <submitr+0x746>
  402a57:	44 8b 44 24 1c       	mov    0x1c(%rsp),%r8d
  402a5c:	41 81 f8 c8 00 00 00 	cmp    $0xc8,%r8d
  402a63:	74 37                	je     402a9c <submitr+0x6af>
  402a65:	4c 8d 8c 24 40 80 00 	lea    0x8040(%rsp),%r9
  402a6c:	00 
  402a6d:	b9 28 36 40 00       	mov    $0x403628,%ecx
  402a72:	48 c7 c2 ff ff ff ff 	mov    $0xffffffffffffffff,%rdx
  402a79:	be 01 00 00 00       	mov    $0x1,%esi
  402a7e:	48 89 df             	mov    %rbx,%rdi
  402a81:	b8 00 00 00 00       	mov    $0x0,%eax
  402a86:	e8 a5 e3 ff ff       	callq  400e30 <__sprintf_chk@plt>
  402a8b:	89 ef                	mov    %ebp,%edi
  402a8d:	e8 4e e2 ff ff       	callq  400ce0 <close@plt>
  402a92:	b8 ff ff ff ff       	mov    $0xffffffff,%eax
  402a97:	e9 97 00 00 00       	jmpq   402b33 <submitr+0x746>
  402a9c:	48 8d b4 24 40 20 00 	lea    0x2040(%rsp),%rsi
  402aa3:	00 
  402aa4:	48 89 df             	mov    %rbx,%rdi
  402aa7:	e8 c4 e1 ff ff       	callq  400c70 <strcpy@plt>
  402aac:	89 ef                	mov    %ebp,%edi
  402aae:	e8 2d e2 ff ff       	callq  400ce0 <close@plt>
  402ab3:	0f b6 03             	movzbl (%rbx),%eax
  402ab6:	ba 4f 00 00 00       	mov    $0x4f,%edx
  402abb:	29 c2                	sub    %eax,%edx
  402abd:	75 22                	jne    402ae1 <submitr+0x6f4>
  402abf:	0f b6 4b 01          	movzbl 0x1(%rbx),%ecx
  402ac3:	b8 4b 00 00 00       	mov    $0x4b,%eax
  402ac8:	29 c8                	sub    %ecx,%eax
  402aca:	75 17                	jne    402ae3 <submitr+0x6f6>
  402acc:	0f b6 4b 02          	movzbl 0x2(%rbx),%ecx
  402ad0:	b8 0a 00 00 00       	mov    $0xa,%eax
  402ad5:	29 c8                	sub    %ecx,%eax
  402ad7:	75 0a                	jne    402ae3 <submitr+0x6f6>
  402ad9:	0f b6 43 03          	movzbl 0x3(%rbx),%eax
  402add:	f7 d8                	neg    %eax
  402adf:	eb 02                	jmp    402ae3 <submitr+0x6f6>
  402ae1:	89 d0                	mov    %edx,%eax
  402ae3:	85 c0                	test   %eax,%eax
  402ae5:	74 40                	je     402b27 <submitr+0x73a>
  402ae7:	bf 70 36 40 00       	mov    $0x403670,%edi
  402aec:	b9 05 00 00 00       	mov    $0x5,%ecx
  402af1:	48 89 de             	mov    %rbx,%rsi
  402af4:	f3 a6                	repz cmpsb %es:(%rdi),%ds:(%rsi)
  402af6:	0f 97 c0             	seta   %al
  402af9:	0f 92 c1             	setb   %cl
  402afc:	29 c8                	sub    %ecx,%eax
  402afe:	0f be c0             	movsbl %al,%eax
  402b01:	85 c0                	test   %eax,%eax
  402b03:	74 2e                	je     402b33 <submitr+0x746>
  402b05:	85 d2                	test   %edx,%edx
  402b07:	75 13                	jne    402b1c <submitr+0x72f>
  402b09:	0f b6 43 01          	movzbl 0x1(%rbx),%eax
  402b0d:	ba 4b 00 00 00       	mov    $0x4b,%edx
  402b12:	29 c2                	sub    %eax,%edx
  402b14:	75 06                	jne    402b1c <submitr+0x72f>
  402b16:	0f b6 53 02          	movzbl 0x2(%rbx),%edx
  402b1a:	f7 da                	neg    %edx
  402b1c:	85 d2                	test   %edx,%edx
  402b1e:	75 0e                	jne    402b2e <submitr+0x741>
  402b20:	b8 00 00 00 00       	mov    $0x0,%eax
  402b25:	eb 0c                	jmp    402b33 <submitr+0x746>
  402b27:	b8 00 00 00 00       	mov    $0x0,%eax
  402b2c:	eb 05                	jmp    402b33 <submitr+0x746>
  402b2e:	b8 ff ff ff ff       	mov    $0xffffffff,%eax
  402b33:	48 8b 9c 24 48 a0 00 	mov    0xa048(%rsp),%rbx
  402b3a:	00 
  402b3b:	64 48 33 1c 25 28 00 	xor    %fs:0x28,%rbx
  402b42:	00 00 
  402b44:	74 05                	je     402b4b <submitr+0x75e>
  402b46:	e8 55 e1 ff ff       	callq  400ca0 <__stack_chk_fail@plt>
  402b4b:	48 81 c4 58 a0 00 00 	add    $0xa058,%rsp
  402b52:	5b                   	pop    %rbx
  402b53:	5d                   	pop    %rbp
  402b54:	41 5c                	pop    %r12
  402b56:	41 5d                	pop    %r13
  402b58:	41 5e                	pop    %r14
  402b5a:	41 5f                	pop    %r15
  402b5c:	c3                   	retq   

0000000000402b5d <init_timeout>:
  402b5d:	85 ff                	test   %edi,%edi
  402b5f:	74 23                	je     402b84 <init_timeout+0x27>
  402b61:	53                   	push   %rbx
  402b62:	89 fb                	mov    %edi,%ebx
  402b64:	85 ff                	test   %edi,%edi
  402b66:	79 05                	jns    402b6d <init_timeout+0x10>
  402b68:	bb 00 00 00 00       	mov    $0x0,%ebx
  402b6d:	be 21 21 40 00       	mov    $0x402121,%esi
  402b72:	bf 0e 00 00 00       	mov    $0xe,%edi
  402b77:	e8 94 e1 ff ff       	callq  400d10 <signal@plt>
  402b7c:	89 df                	mov    %ebx,%edi
  402b7e:	e8 4d e1 ff ff       	callq  400cd0 <alarm@plt>
  402b83:	5b                   	pop    %rbx
  402b84:	f3 c3                	repz retq 

0000000000402b86 <init_driver>:
  402b86:	55                   	push   %rbp
  402b87:	53                   	push   %rbx
  402b88:	48 83 ec 28          	sub    $0x28,%rsp
  402b8c:	48 89 fd             	mov    %rdi,%rbp
  402b8f:	64 48 8b 04 25 28 00 	mov    %fs:0x28,%rax
  402b96:	00 00 
  402b98:	48 89 44 24 18       	mov    %rax,0x18(%rsp)
  402b9d:	31 c0                	xor    %eax,%eax
  402b9f:	be 01 00 00 00       	mov    $0x1,%esi
  402ba4:	bf 0d 00 00 00       	mov    $0xd,%edi
  402ba9:	e8 62 e1 ff ff       	callq  400d10 <signal@plt>
  402bae:	be 01 00 00 00       	mov    $0x1,%esi
  402bb3:	bf 1d 00 00 00       	mov    $0x1d,%edi
  402bb8:	e8 53 e1 ff ff       	callq  400d10 <signal@plt>
  402bbd:	be 01 00 00 00       	mov    $0x1,%esi
  402bc2:	bf 1d 00 00 00       	mov    $0x1d,%edi
  402bc7:	e8 44 e1 ff ff       	callq  400d10 <signal@plt>
  402bcc:	ba 00 00 00 00       	mov    $0x0,%edx
  402bd1:	be 01 00 00 00       	mov    $0x1,%esi
  402bd6:	bf 02 00 00 00       	mov    $0x2,%edi
  402bdb:	e8 60 e2 ff ff       	callq  400e40 <socket@plt>
  402be0:	85 c0                	test   %eax,%eax
  402be2:	79 4f                	jns    402c33 <init_driver+0xad>
  402be4:	48 b8 45 72 72 6f 72 	movabs $0x43203a726f727245,%rax
  402beb:	3a 20 43 
  402bee:	48 89 45 00          	mov    %rax,0x0(%rbp)
  402bf2:	48 b8 6c 69 65 6e 74 	movabs $0x6e7520746e65696c,%rax
  402bf9:	20 75 6e 
  402bfc:	48 89 45 08          	mov    %rax,0x8(%rbp)
  402c00:	48 b8 61 62 6c 65 20 	movabs $0x206f7420656c6261,%rax
  402c07:	74 6f 20 
  402c0a:	48 89 45 10          	mov    %rax,0x10(%rbp)
  402c0e:	48 b8 63 72 65 61 74 	movabs $0x7320657461657263,%rax
  402c15:	65 20 73 
  402c18:	48 89 45 18          	mov    %rax,0x18(%rbp)
  402c1c:	c7 45 20 6f 63 6b 65 	movl   $0x656b636f,0x20(%rbp)
  402c23:	66 c7 45 24 74 00    	movw   $0x74,0x24(%rbp)
  402c29:	b8 ff ff ff ff       	mov    $0xffffffff,%eax
  402c2e:	e9 2a 01 00 00       	jmpq   402d5d <init_driver+0x1d7>
  402c33:	89 c3                	mov    %eax,%ebx
  402c35:	bf 75 36 40 00       	mov    $0x403675,%edi
  402c3a:	e8 e1 e0 ff ff       	callq  400d20 <gethostbyname@plt>
  402c3f:	48 85 c0             	test   %rax,%rax
  402c42:	75 68                	jne    402cac <init_driver+0x126>
  402c44:	48 b8 45 72 72 6f 72 	movabs $0x44203a726f727245,%rax
  402c4b:	3a 20 44 
  402c4e:	48 89 45 00          	mov    %rax,0x0(%rbp)
  402c52:	48 b8 4e 53 20 69 73 	movabs $0x6e7520736920534e,%rax
  402c59:	20 75 6e 
  402c5c:	48 89 45 08          	mov    %rax,0x8(%rbp)
  402c60:	48 b8 61 62 6c 65 20 	movabs $0x206f7420656c6261,%rax
  402c67:	74 6f 20 
  402c6a:	48 89 45 10          	mov    %rax,0x10(%rbp)
  402c6e:	48 b8 72 65 73 6f 6c 	movabs $0x2065766c6f736572,%rax
  402c75:	76 65 20 
  402c78:	48 89 45 18          	mov    %rax,0x18(%rbp)
  402c7c:	48 b8 73 65 72 76 65 	movabs $0x6120726576726573,%rax
  402c83:	72 20 61 
  402c86:	48 89 45 20          	mov    %rax,0x20(%rbp)
  402c8a:	c7 45 28 64 64 72 65 	movl   $0x65726464,0x28(%rbp)
  402c91:	66 c7 45 2c 73 73    	movw   $0x7373,0x2c(%rbp)
  402c97:	c6 45 2e 00          	movb   $0x0,0x2e(%rbp)
  402c9b:	89 df                	mov    %ebx,%edi
  402c9d:	e8 3e e0 ff ff       	callq  400ce0 <close@plt>
  402ca2:	b8 ff ff ff ff       	mov    $0xffffffff,%eax
  402ca7:	e9 b1 00 00 00       	jmpq   402d5d <init_driver+0x1d7>
  402cac:	48 c7 04 24 00 00 00 	movq   $0x0,(%rsp)
  402cb3:	00 
  402cb4:	48 c7 44 24 08 00 00 	movq   $0x0,0x8(%rsp)
  402cbb:	00 00 
  402cbd:	66 c7 04 24 02 00    	movw   $0x2,(%rsp)
  402cc3:	48 63 50 14          	movslq 0x14(%rax),%rdx
  402cc7:	48 8b 40 18          	mov    0x18(%rax),%rax
  402ccb:	48 8b 30             	mov    (%rax),%rsi
  402cce:	48 8d 7c 24 04       	lea    0x4(%rsp),%rdi
  402cd3:	b9 0c 00 00 00       	mov    $0xc,%ecx
  402cd8:	e8 53 e0 ff ff       	callq  400d30 <__memmove_chk@plt>
  402cdd:	66 c7 44 24 02 27 1a 	movw   $0x1a27,0x2(%rsp)
  402ce4:	ba 10 00 00 00       	mov    $0x10,%edx
  402ce9:	48 89 e6             	mov    %rsp,%rsi
  402cec:	89 df                	mov    %ebx,%edi
  402cee:	e8 1d e1 ff ff       	callq  400e10 <connect@plt>
  402cf3:	85 c0                	test   %eax,%eax
  402cf5:	79 50                	jns    402d47 <init_driver+0x1c1>
  402cf7:	48 b8 45 72 72 6f 72 	movabs $0x55203a726f727245,%rax
  402cfe:	3a 20 55 
  402d01:	48 89 45 00          	mov    %rax,0x0(%rbp)
  402d05:	48 b8 6e 61 62 6c 65 	movabs $0x6f7420656c62616e,%rax
  402d0c:	20 74 6f 
  402d0f:	48 89 45 08          	mov    %rax,0x8(%rbp)
  402d13:	48 b8 20 63 6f 6e 6e 	movabs $0x7463656e6e6f6320,%rax
  402d1a:	65 63 74 
  402d1d:	48 89 45 10          	mov    %rax,0x10(%rbp)
  402d21:	48 b8 20 74 6f 20 73 	movabs $0x76726573206f7420,%rax
  402d28:	65 72 76 
  402d2b:	48 89 45 18          	mov    %rax,0x18(%rbp)
  402d2f:	66 c7 45 20 65 72    	movw   $0x7265,0x20(%rbp)
  402d35:	c6 45 22 00          	movb   $0x0,0x22(%rbp)
  402d39:	89 df                	mov    %ebx,%edi
  402d3b:	e8 a0 df ff ff       	callq  400ce0 <close@plt>
  402d40:	b8 ff ff ff ff       	mov    $0xffffffff,%eax
  402d45:	eb 16                	jmp    402d5d <init_driver+0x1d7>
  402d47:	89 df                	mov    %ebx,%edi
  402d49:	e8 92 df ff ff       	callq  400ce0 <close@plt>
  402d4e:	66 c7 45 00 4f 4b    	movw   $0x4b4f,0x0(%rbp)
  402d54:	c6 45 02 00          	movb   $0x0,0x2(%rbp)
  402d58:	b8 00 00 00 00       	mov    $0x0,%eax
  402d5d:	48 8b 4c 24 18       	mov    0x18(%rsp),%rcx
  402d62:	64 48 33 0c 25 28 00 	xor    %fs:0x28,%rcx
  402d69:	00 00 
  402d6b:	74 05                	je     402d72 <init_driver+0x1ec>
  402d6d:	e8 2e df ff ff       	callq  400ca0 <__stack_chk_fail@plt>
  402d72:	48 83 c4 28          	add    $0x28,%rsp
  402d76:	5b                   	pop    %rbx
  402d77:	5d                   	pop    %rbp
  402d78:	c3                   	retq   

0000000000402d79 <driver_post>:
  402d79:	53                   	push   %rbx
  402d7a:	4c 89 cb             	mov    %r9,%rbx
  402d7d:	45 85 c0             	test   %r8d,%r8d
  402d80:	74 27                	je     402da9 <driver_post+0x30>
  402d82:	48 89 ca             	mov    %rcx,%rdx
  402d85:	be 83 36 40 00       	mov    $0x403683,%esi
  402d8a:	bf 01 00 00 00       	mov    $0x1,%edi
  402d8f:	b8 00 00 00 00       	mov    $0x0,%eax
  402d94:	e8 17 e0 ff ff       	callq  400db0 <__printf_chk@plt>
  402d99:	66 c7 03 4f 4b       	movw   $0x4b4f,(%rbx)
  402d9e:	c6 43 02 00          	movb   $0x0,0x2(%rbx)
  402da2:	b8 00 00 00 00       	mov    $0x0,%eax
  402da7:	eb 3f                	jmp    402de8 <driver_post+0x6f>
  402da9:	48 85 ff             	test   %rdi,%rdi
  402dac:	74 2c                	je     402dda <driver_post+0x61>
  402dae:	80 3f 00             	cmpb   $0x0,(%rdi)
  402db1:	74 27                	je     402dda <driver_post+0x61>
  402db3:	48 83 ec 08          	sub    $0x8,%rsp
  402db7:	41 51                	push   %r9
  402db9:	49 89 c9             	mov    %rcx,%r9
  402dbc:	49 89 d0             	mov    %rdx,%r8
  402dbf:	48 89 f9             	mov    %rdi,%rcx
  402dc2:	48 89 f2             	mov    %rsi,%rdx
  402dc5:	be 1a 27 00 00       	mov    $0x271a,%esi
  402dca:	bf 75 36 40 00       	mov    $0x403675,%edi
  402dcf:	e8 19 f6 ff ff       	callq  4023ed <submitr>
  402dd4:	48 83 c4 10          	add    $0x10,%rsp
  402dd8:	eb 0e                	jmp    402de8 <driver_post+0x6f>
  402dda:	66 c7 03 4f 4b       	movw   $0x4b4f,(%rbx)
  402ddf:	c6 43 02 00          	movb   $0x0,0x2(%rbx)
  402de3:	b8 00 00 00 00       	mov    $0x0,%eax
  402de8:	5b                   	pop    %rbx
  402de9:	c3                   	retq   

0000000000402dea <check>:
  402dea:	89 f8                	mov    %edi,%eax
  402dec:	c1 e8 1c             	shr    $0x1c,%eax
  402def:	85 c0                	test   %eax,%eax
  402df1:	74 1d                	je     402e10 <check+0x26>
  402df3:	b9 00 00 00 00       	mov    $0x0,%ecx
  402df8:	eb 0b                	jmp    402e05 <check+0x1b>
  402dfa:	89 f8                	mov    %edi,%eax
  402dfc:	d3 e8                	shr    %cl,%eax
  402dfe:	3c 0a                	cmp    $0xa,%al
  402e00:	74 14                	je     402e16 <check+0x2c>
  402e02:	83 c1 08             	add    $0x8,%ecx
  402e05:	83 f9 1f             	cmp    $0x1f,%ecx
  402e08:	7e f0                	jle    402dfa <check+0x10>
  402e0a:	b8 01 00 00 00       	mov    $0x1,%eax
  402e0f:	c3                   	retq   
  402e10:	b8 00 00 00 00       	mov    $0x0,%eax
  402e15:	c3                   	retq   
  402e16:	b8 00 00 00 00       	mov    $0x0,%eax
  402e1b:	c3                   	retq   

0000000000402e1c <gencookie>:
  402e1c:	53                   	push   %rbx
  402e1d:	83 c7 01             	add    $0x1,%edi
  402e20:	e8 2b de ff ff       	callq  400c50 <srandom@plt>
  402e25:	e8 46 df ff ff       	callq  400d70 <random@plt>
  402e2a:	89 c3                	mov    %eax,%ebx
  402e2c:	89 c7                	mov    %eax,%edi
  402e2e:	e8 b7 ff ff ff       	callq  402dea <check>
  402e33:	85 c0                	test   %eax,%eax
  402e35:	74 ee                	je     402e25 <gencookie+0x9>
  402e37:	89 d8                	mov    %ebx,%eax
  402e39:	5b                   	pop    %rbx
  402e3a:	c3                   	retq   
  402e3b:	0f 1f 44 00 00       	nopl   0x0(%rax,%rax,1)

0000000000402e40 <__libc_csu_init>:
  402e40:	41 57                	push   %r15
  402e42:	41 56                	push   %r14
  402e44:	41 89 ff             	mov    %edi,%r15d
  402e47:	41 55                	push   %r13
  402e49:	41 54                	push   %r12
  402e4b:	4c 8d 25 be 1f 20 00 	lea    0x201fbe(%rip),%r12        # 604e10 <__frame_dummy_init_array_entry>
  402e52:	55                   	push   %rbp
  402e53:	48 8d 2d be 1f 20 00 	lea    0x201fbe(%rip),%rbp        # 604e18 <__init_array_end>
  402e5a:	53                   	push   %rbx
  402e5b:	49 89 f6             	mov    %rsi,%r14
  402e5e:	49 89 d5             	mov    %rdx,%r13
  402e61:	4c 29 e5             	sub    %r12,%rbp
  402e64:	48 83 ec 08          	sub    $0x8,%rsp
  402e68:	48 c1 fd 03          	sar    $0x3,%rbp
  402e6c:	e8 97 dd ff ff       	callq  400c08 <_init>
  402e71:	48 85 ed             	test   %rbp,%rbp
  402e74:	74 20                	je     402e96 <__libc_csu_init+0x56>
  402e76:	31 db                	xor    %ebx,%ebx
  402e78:	0f 1f 84 00 00 00 00 	nopl   0x0(%rax,%rax,1)
  402e7f:	00 
  402e80:	4c 89 ea             	mov    %r13,%rdx
  402e83:	4c 89 f6             	mov    %r14,%rsi
  402e86:	44 89 ff             	mov    %r15d,%edi
  402e89:	41 ff 14 dc          	callq  *(%r12,%rbx,8)
  402e8d:	48 83 c3 01          	add    $0x1,%rbx
  402e91:	48 39 eb             	cmp    %rbp,%rbx
  402e94:	75 ea                	jne    402e80 <__libc_csu_init+0x40>
  402e96:	48 83 c4 08          	add    $0x8,%rsp
  402e9a:	5b                   	pop    %rbx
  402e9b:	5d                   	pop    %rbp
  402e9c:	41 5c                	pop    %r12
  402e9e:	41 5d                	pop    %r13
  402ea0:	41 5e                	pop    %r14
  402ea2:	41 5f                	pop    %r15
  402ea4:	c3                   	retq   
  402ea5:	90                   	nop
  402ea6:	66 2e 0f 1f 84 00 00 	nopw   %cs:0x0(%rax,%rax,1)
  402ead:	00 00 00 

0000000000402eb0 <__libc_csu_fini>:
  402eb0:	f3 c3                	repz retq 

Disassembly of section .fini:

0000000000402eb4 <_fini>:
  402eb4:	48 83 ec 08          	sub    $0x8,%rsp
  402eb8:	48 83 c4 08          	add    $0x8,%rsp
  402ebc:	c3                   	retq   
